
GccApplication1.elf:     file format elf32-avr

Sections:
Idx Name          Size      VMA       LMA       File off  Algn
  0 .text         000003e4  00000000  00000000  00000094  2**1
                  CONTENTS, ALLOC, LOAD, READONLY, CODE
  1 .data         00000016  00800060  000003e4  00000478  2**0
                  CONTENTS, ALLOC, LOAD, DATA
  2 .bss          00000036  00800076  00800076  0000048e  2**0
                  ALLOC
  3 .comment      00000030  00000000  00000000  0000048e  2**0
                  CONTENTS, READONLY
  4 .note.gnu.avr.deviceinfo 0000003c  00000000  00000000  000004c0  2**2
                  CONTENTS, READONLY
  5 .debug_info   0000048c  00000000  00000000  000004fc  2**0
                  CONTENTS, READONLY, DEBUGGING
  6 .debug_abbrev 0000044e  00000000  00000000  00000988  2**0
                  CONTENTS, READONLY, DEBUGGING
  7 .debug_line   00000109  00000000  00000000  00000dd6  2**0
                  CONTENTS, READONLY, DEBUGGING
  8 .debug_str    0000017a  00000000  00000000  00000edf  2**0
                  CONTENTS, READONLY, DEBUGGING

Disassembly of section .text:

00000000 <__vectors>:
   0:	12 c0       	rjmp	.+36     	; 0x26 <__ctors_end>
   2:	2c c0       	rjmp	.+88     	; 0x5c <__bad_interrupt>
   4:	2b c0       	rjmp	.+86     	; 0x5c <__bad_interrupt>
   6:	b1 c0       	rjmp	.+354    	; 0x16a <__vector_3>
   8:	29 c0       	rjmp	.+82     	; 0x5c <__bad_interrupt>
   a:	28 c0       	rjmp	.+80     	; 0x5c <__bad_interrupt>
   c:	27 c0       	rjmp	.+78     	; 0x5c <__bad_interrupt>
   e:	26 c0       	rjmp	.+76     	; 0x5c <__bad_interrupt>
  10:	25 c0       	rjmp	.+74     	; 0x5c <__bad_interrupt>
  12:	24 c0       	rjmp	.+72     	; 0x5c <__bad_interrupt>
  14:	23 c0       	rjmp	.+70     	; 0x5c <__bad_interrupt>
  16:	47 c0       	rjmp	.+142    	; 0xa6 <__vector_11>
  18:	21 c0       	rjmp	.+66     	; 0x5c <__bad_interrupt>
  1a:	20 c0       	rjmp	.+64     	; 0x5c <__bad_interrupt>
  1c:	1f c0       	rjmp	.+62     	; 0x5c <__bad_interrupt>
  1e:	1e c0       	rjmp	.+60     	; 0x5c <__bad_interrupt>
  20:	1d c0       	rjmp	.+58     	; 0x5c <__bad_interrupt>
  22:	1c c0       	rjmp	.+56     	; 0x5c <__bad_interrupt>
  24:	1b c0       	rjmp	.+54     	; 0x5c <__bad_interrupt>

00000026 <__ctors_end>:
  26:	11 24       	eor	r1, r1
  28:	1f be       	out	0x3f, r1	; 63
  2a:	cf e5       	ldi	r28, 0x5F	; 95
  2c:	d4 e0       	ldi	r29, 0x04	; 4
  2e:	de bf       	out	0x3e, r29	; 62
  30:	cd bf       	out	0x3d, r28	; 61

00000032 <__do_copy_data>:
  32:	10 e0       	ldi	r17, 0x00	; 0
  34:	a0 e6       	ldi	r26, 0x60	; 96
  36:	b0 e0       	ldi	r27, 0x00	; 0
  38:	e4 ee       	ldi	r30, 0xE4	; 228
  3a:	f3 e0       	ldi	r31, 0x03	; 3
  3c:	02 c0       	rjmp	.+4      	; 0x42 <__SREG__+0x3>
  3e:	05 90       	lpm	r0, Z+
  40:	0d 92       	st	X+, r0
  42:	a6 37       	cpi	r26, 0x76	; 118
  44:	b1 07       	cpc	r27, r17
  46:	d9 f7       	brne	.-10     	; 0x3e <__SP_H__>

00000048 <__do_clear_bss>:
  48:	20 e0       	ldi	r18, 0x00	; 0
  4a:	a6 e7       	ldi	r26, 0x76	; 118
  4c:	b0 e0       	ldi	r27, 0x00	; 0
  4e:	01 c0       	rjmp	.+2      	; 0x52 <.do_clear_bss_start>

00000050 <.do_clear_bss_loop>:
  50:	1d 92       	st	X+, r1

00000052 <.do_clear_bss_start>:
  52:	ac 3a       	cpi	r26, 0xAC	; 172
  54:	b2 07       	cpc	r27, r18
  56:	e1 f7       	brne	.-8      	; 0x50 <.do_clear_bss_loop>
  58:	78 d1       	rcall	.+752    	; 0x34a <main>
  5a:	c2 c1       	rjmp	.+900    	; 0x3e0 <_exit>

0000005c <__bad_interrupt>:
  5c:	d1 cf       	rjmp	.-94     	; 0x0 <__vectors>

0000005e <_Z10USART_Initj>:
  5e:	9c 01       	movw	r18, r24
  60:	40 e0       	ldi	r20, 0x00	; 0
  62:	50 e0       	ldi	r21, 0x00	; 0
  64:	60 e4       	ldi	r22, 0x40	; 64
  66:	72 e4       	ldi	r23, 0x42	; 66
  68:	8f e0       	ldi	r24, 0x0F	; 15
  6a:	90 e0       	ldi	r25, 0x00	; 0
  6c:	97 d1       	rcall	.+814    	; 0x39c <__udivmodsi4>
  6e:	21 50       	subi	r18, 0x01	; 1
  70:	31 09       	sbc	r19, r1
  72:	30 bd       	out	0x20, r19	; 32
  74:	29 b9       	out	0x09, r18	; 9
  76:	88 e9       	ldi	r24, 0x98	; 152
  78:	8a b9       	out	0x0a, r24	; 10
  7a:	8e e8       	ldi	r24, 0x8E	; 142
  7c:	80 bd       	out	0x20, r24	; 32
  7e:	78 94       	sei
  80:	08 95       	ret

00000082 <_Z14USART_Transmith>:
  82:	5d 9b       	sbis	0x0b, 5	; 11
  84:	fe cf       	rjmp	.-4      	; 0x82 <_Z14USART_Transmith>
  86:	8c b9       	out	0x0c, r24	; 12
  88:	08 95       	ret

0000008a <_Z16USART_TxStringlnPc>:
  8a:	cf 93       	push	r28
  8c:	df 93       	push	r29
  8e:	ec 01       	movw	r28, r24
  90:	89 91       	ld	r24, Y+
  92:	88 23       	and	r24, r24
  94:	11 f0       	breq	.+4      	; 0x9a <_Z16USART_TxStringlnPc+0x10>
  96:	f5 df       	rcall	.-22     	; 0x82 <_Z14USART_Transmith>
  98:	fb cf       	rjmp	.-10     	; 0x90 <_Z16USART_TxStringlnPc+0x6>
  9a:	8d e0       	ldi	r24, 0x0D	; 13
  9c:	f2 df       	rcall	.-28     	; 0x82 <_Z14USART_Transmith>
  9e:	8a e0       	ldi	r24, 0x0A	; 10
  a0:	df 91       	pop	r29
  a2:	cf 91       	pop	r28
  a4:	ee cf       	rjmp	.-36     	; 0x82 <_Z14USART_Transmith>

000000a6 <__vector_11>:
  a6:	1f 92       	push	r1
  a8:	0f 92       	push	r0
  aa:	0f b6       	in	r0, 0x3f	; 63
  ac:	0f 92       	push	r0
  ae:	11 24       	eor	r1, r1
  b0:	2f 93       	push	r18
  b2:	8f 93       	push	r24
  b4:	9f 93       	push	r25
  b6:	ef 93       	push	r30
  b8:	ff 93       	push	r31
  ba:	9c b1       	in	r25, 0x0c	; 12
  bc:	80 e0       	ldi	r24, 0x00	; 0
  be:	e8 2f       	mov	r30, r24
  c0:	f0 e0       	ldi	r31, 0x00	; 0
  c2:	e6 58       	subi	r30, 0x86	; 134
  c4:	ff 4f       	sbci	r31, 0xFF	; 255
  c6:	20 81       	ld	r18, Z
  c8:	22 23       	and	r18, r18
  ca:	11 f0       	breq	.+4      	; 0xd0 <__vector_11+0x2a>
  cc:	8f 5f       	subi	r24, 0xFF	; 255
  ce:	f7 cf       	rjmp	.-18     	; 0xbe <__vector_11+0x18>
  d0:	82 33       	cpi	r24, 0x32	; 50
  d2:	10 f4       	brcc	.+4      	; 0xd8 <__vector_11+0x32>
  d4:	90 83       	st	Z, r25
  d6:	0a c0       	rjmp	.+20     	; 0xec <__vector_11+0x46>
  d8:	ea e7       	ldi	r30, 0x7A	; 122
  da:	f0 e0       	ldi	r31, 0x00	; 0
  dc:	81 81       	ldd	r24, Z+1	; 0x01
  de:	81 93       	st	Z+, r24
  e0:	80 e0       	ldi	r24, 0x00	; 0
  e2:	eb 3a       	cpi	r30, 0xAB	; 171
  e4:	f8 07       	cpc	r31, r24
  e6:	d1 f7       	brne	.-12     	; 0xdc <__vector_11+0x36>
  e8:	90 93 ab 00 	sts	0x00AB, r25	; 0x8000ab <rxvalue+0x31>
  ec:	ff 91       	pop	r31
  ee:	ef 91       	pop	r30
  f0:	9f 91       	pop	r25
  f2:	8f 91       	pop	r24
  f4:	2f 91       	pop	r18
  f6:	0f 90       	pop	r0
  f8:	0f be       	out	0x3f, r0	; 63
  fa:	0f 90       	pop	r0
  fc:	1f 90       	pop	r1
  fe:	18 95       	reti

00000100 <_Z13SoftUART_Initv>:
 100:	8a 9a       	sbi	0x11, 2	; 17
 102:	92 9a       	sbi	0x12, 2	; 18
 104:	85 b5       	in	r24, 0x25	; 37
 106:	88 60       	ori	r24, 0x08	; 8
 108:	85 bd       	out	0x25, r24	; 37
 10a:	89 b7       	in	r24, 0x39	; 57
 10c:	80 68       	ori	r24, 0x80	; 128
 10e:	89 bf       	out	0x39, r24	; 57
 110:	8f ec       	ldi	r24, 0xCF	; 207
 112:	83 bd       	out	0x23, r24	; 35
 114:	78 94       	sei
 116:	08 95       	ret

00000118 <_Z11SoftUART_txc>:
 118:	20 91 78 00 	lds	r18, 0x0078	; 0x800078 <tx_shift_reg>
 11c:	30 91 79 00 	lds	r19, 0x0079	; 0x800079 <tx_shift_reg+0x1>
 120:	23 2b       	or	r18, r19
 122:	11 f5       	brne	.+68     	; 0x168 <_Z11SoftUART_txc+0x50>
 124:	90 e0       	ldi	r25, 0x00	; 0
 126:	88 0f       	add	r24, r24
 128:	99 1f       	adc	r25, r25
 12a:	90 93 79 00 	sts	0x0079, r25	; 0x800079 <tx_shift_reg+0x1>
 12e:	80 93 78 00 	sts	0x0078, r24	; 0x800078 <tx_shift_reg>
 132:	80 91 78 00 	lds	r24, 0x0078	; 0x800078 <tx_shift_reg>
 136:	90 91 79 00 	lds	r25, 0x0079	; 0x800079 <tx_shift_reg+0x1>
 13a:	8e 7f       	andi	r24, 0xFE	; 254
 13c:	90 93 79 00 	sts	0x0079, r25	; 0x800079 <tx_shift_reg+0x1>
 140:	80 93 78 00 	sts	0x0078, r24	; 0x800078 <tx_shift_reg>
 144:	80 91 78 00 	lds	r24, 0x0078	; 0x800078 <tx_shift_reg>
 148:	90 91 79 00 	lds	r25, 0x0079	; 0x800079 <tx_shift_reg+0x1>
 14c:	92 60       	ori	r25, 0x02	; 2
 14e:	90 93 79 00 	sts	0x0079, r25	; 0x800079 <tx_shift_reg+0x1>
 152:	80 93 78 00 	sts	0x0078, r24	; 0x800078 <tx_shift_reg>
 156:	85 b5       	in	r24, 0x25	; 37
 158:	82 60       	ori	r24, 0x02	; 2
 15a:	85 bd       	out	0x25, r24	; 37
 15c:	80 91 78 00 	lds	r24, 0x0078	; 0x800078 <tx_shift_reg>
 160:	90 91 79 00 	lds	r25, 0x0079	; 0x800079 <tx_shift_reg+0x1>
 164:	89 2b       	or	r24, r25
 166:	d1 f7       	brne	.-12     	; 0x15c <_Z11SoftUART_txc+0x44>
 168:	08 95       	ret

0000016a <__vector_3>:
 16a:	1f 92       	push	r1
 16c:	0f 92       	push	r0
 16e:	0f b6       	in	r0, 0x3f	; 63
 170:	0f 92       	push	r0
 172:	11 24       	eor	r1, r1
 174:	8f 93       	push	r24
 176:	9f 93       	push	r25
 178:	80 91 78 00 	lds	r24, 0x0078	; 0x800078 <tx_shift_reg>
 17c:	90 91 79 00 	lds	r25, 0x0079	; 0x800079 <tx_shift_reg+0x1>
 180:	80 ff       	sbrs	r24, 0
 182:	02 c0       	rjmp	.+4      	; 0x188 <__vector_3+0x1e>
 184:	92 9a       	sbi	0x12, 2	; 18
 186:	01 c0       	rjmp	.+2      	; 0x18a <__vector_3+0x20>
 188:	92 98       	cbi	0x12, 2	; 18
 18a:	80 91 78 00 	lds	r24, 0x0078	; 0x800078 <tx_shift_reg>
 18e:	90 91 79 00 	lds	r25, 0x0079	; 0x800079 <tx_shift_reg+0x1>
 192:	96 95       	lsr	r25
 194:	87 95       	ror	r24
 196:	90 93 79 00 	sts	0x0079, r25	; 0x800079 <tx_shift_reg+0x1>
 19a:	80 93 78 00 	sts	0x0078, r24	; 0x800078 <tx_shift_reg>
 19e:	80 91 78 00 	lds	r24, 0x0078	; 0x800078 <tx_shift_reg>
 1a2:	90 91 79 00 	lds	r25, 0x0079	; 0x800079 <tx_shift_reg+0x1>
 1a6:	89 2b       	or	r24, r25
 1a8:	11 f4       	brne	.+4      	; 0x1ae <__vector_3+0x44>
 1aa:	13 bc       	out	0x23, r1	; 35
 1ac:	14 bc       	out	0x24, r1	; 36
 1ae:	9f 91       	pop	r25
 1b0:	8f 91       	pop	r24
 1b2:	0f 90       	pop	r0
 1b4:	0f be       	out	0x3f, r0	; 63
 1b6:	0f 90       	pop	r0
 1b8:	1f 90       	pop	r1
 1ba:	18 95       	reti

000001bc <_Z18SoftUSART_tx_strlnPc>:
 1bc:	cf 93       	push	r28
 1be:	df 93       	push	r29
 1c0:	ec 01       	movw	r28, r24
 1c2:	89 91       	ld	r24, Y+
 1c4:	88 23       	and	r24, r24
 1c6:	11 f0       	breq	.+4      	; 0x1cc <_Z18SoftUSART_tx_strlnPc+0x10>
 1c8:	a7 df       	rcall	.-178    	; 0x118 <_Z11SoftUART_txc>
 1ca:	fb cf       	rjmp	.-10     	; 0x1c2 <_Z18SoftUSART_tx_strlnPc+0x6>
 1cc:	8d e0       	ldi	r24, 0x0D	; 13
 1ce:	a4 df       	rcall	.-184    	; 0x118 <_Z11SoftUART_txc>
 1d0:	8a e0       	ldi	r24, 0x0A	; 10
 1d2:	df 91       	pop	r29
 1d4:	cf 91       	pop	r28
 1d6:	a0 cf       	rjmp	.-192    	; 0x118 <_Z11SoftUART_txc>

000001d8 <_Z7TWIInitv>:
 1d8:	11 b8       	out	0x01, r1	; 1
 1da:	88 e4       	ldi	r24, 0x48	; 72
 1dc:	80 b9       	out	0x00, r24	; 0
 1de:	84 e0       	ldi	r24, 0x04	; 4
 1e0:	86 bf       	out	0x36, r24	; 54
 1e2:	08 95       	ret

000001e4 <_Z8TWIStartv>:
 1e4:	84 ea       	ldi	r24, 0xA4	; 164
 1e6:	86 bf       	out	0x36, r24	; 54
 1e8:	06 b6       	in	r0, 0x36	; 54
 1ea:	07 fe       	sbrs	r0, 7
 1ec:	fd cf       	rjmp	.-6      	; 0x1e8 <_Z8TWIStartv+0x4>
 1ee:	08 95       	ret

000001f0 <_Z7TWIStopv>:
 1f0:	84 e9       	ldi	r24, 0x94	; 148
 1f2:	86 bf       	out	0x36, r24	; 54
 1f4:	06 b6       	in	r0, 0x36	; 54
 1f6:	04 fc       	sbrc	r0, 4
 1f8:	fd cf       	rjmp	.-6      	; 0x1f4 <_Z7TWIStopv+0x4>
 1fa:	08 95       	ret

000001fc <_Z13TWIWriteAddrshh>:
 1fc:	88 0f       	add	r24, r24
 1fe:	68 2b       	or	r22, r24
 200:	63 b9       	out	0x03, r22	; 3
 202:	84 e8       	ldi	r24, 0x84	; 132
 204:	86 bf       	out	0x36, r24	; 54
 206:	06 b6       	in	r0, 0x36	; 54
 208:	07 fe       	sbrs	r0, 7
 20a:	fd cf       	rjmp	.-6      	; 0x206 <_Z13TWIWriteAddrshh+0xa>
 20c:	81 b1       	in	r24, 0x01	; 1
 20e:	88 7f       	andi	r24, 0xF8	; 248
 210:	08 95       	ret

00000212 <_Z12TWIWriteDatah>:
 212:	83 b9       	out	0x03, r24	; 3
 214:	84 e8       	ldi	r24, 0x84	; 132
 216:	86 bf       	out	0x36, r24	; 54
 218:	06 b6       	in	r0, 0x36	; 54
 21a:	07 fe       	sbrs	r0, 7
 21c:	fd cf       	rjmp	.-6      	; 0x218 <_Z12TWIWriteDatah+0x6>
 21e:	81 b1       	in	r24, 0x01	; 1
 220:	88 7f       	andi	r24, 0xF8	; 248
 222:	08 95       	ret

00000224 <_Z11Lcd4bitdatahb>:
 224:	1f 93       	push	r17
 226:	cf 93       	push	r28
 228:	df 93       	push	r29
 22a:	d8 2f       	mov	r29, r24
 22c:	c6 2f       	mov	r28, r22
 22e:	da df       	rcall	.-76     	; 0x1e4 <_Z8TWIStartv>
 230:	60 e0       	ldi	r22, 0x00	; 0
 232:	80 91 77 00 	lds	r24, 0x0077	; 0x800077 <deviceAdress>
 236:	e2 df       	rcall	.-60     	; 0x1fc <_Z13TWIWriteAddrshh>
 238:	1c 2f       	mov	r17, r28
 23a:	1d 2b       	or	r17, r29
 23c:	80 91 76 00 	lds	r24, 0x0076	; 0x800076 <__data_end>
 240:	81 2b       	or	r24, r17
 242:	e7 df       	rcall	.-50     	; 0x212 <_Z12TWIWriteDatah>
 244:	d5 df       	rcall	.-86     	; 0x1f0 <_Z7TWIStopv>
 246:	ce df       	rcall	.-100    	; 0x1e4 <_Z8TWIStartv>
 248:	60 e0       	ldi	r22, 0x00	; 0
 24a:	80 91 77 00 	lds	r24, 0x0077	; 0x800077 <deviceAdress>
 24e:	d6 df       	rcall	.-84     	; 0x1fc <_Z13TWIWriteAddrshh>
 250:	80 91 76 00 	lds	r24, 0x0076	; 0x800076 <__data_end>
 254:	84 60       	ori	r24, 0x04	; 4
 256:	81 2b       	or	r24, r17
 258:	dc df       	rcall	.-72     	; 0x212 <_Z12TWIWriteDatah>
 25a:	ca df       	rcall	.-108    	; 0x1f0 <_Z7TWIStopv>
 25c:	8f e1       	ldi	r24, 0x1F	; 31
 25e:	93 e0       	ldi	r25, 0x03	; 3
 260:	01 97       	sbiw	r24, 0x01	; 1
 262:	f1 f7       	brne	.-4      	; 0x260 <_Z11Lcd4bitdatahb+0x3c>
 264:	00 c0       	rjmp	.+0      	; 0x266 <_Z11Lcd4bitdatahb+0x42>
 266:	00 00       	nop
 268:	bd df       	rcall	.-134    	; 0x1e4 <_Z8TWIStartv>
 26a:	60 e0       	ldi	r22, 0x00	; 0
 26c:	80 91 77 00 	lds	r24, 0x0077	; 0x800077 <deviceAdress>
 270:	c5 df       	rcall	.-118    	; 0x1fc <_Z13TWIWriteAddrshh>
 272:	db 7f       	andi	r29, 0xFB	; 251
 274:	cd 2b       	or	r28, r29
 276:	80 91 76 00 	lds	r24, 0x0076	; 0x800076 <__data_end>
 27a:	8c 2b       	or	r24, r28
 27c:	ca df       	rcall	.-108    	; 0x212 <_Z12TWIWriteDatah>
 27e:	b8 df       	rcall	.-144    	; 0x1f0 <_Z7TWIStopv>
 280:	8f e3       	ldi	r24, 0x3F	; 63
 282:	9f e1       	ldi	r25, 0x1F	; 31
 284:	01 97       	sbiw	r24, 0x01	; 1
 286:	f1 f7       	brne	.-4      	; 0x284 <_Z11Lcd4bitdatahb+0x60>
 288:	00 c0       	rjmp	.+0      	; 0x28a <_Z11Lcd4bitdatahb+0x66>
 28a:	00 00       	nop
 28c:	df 91       	pop	r29
 28e:	cf 91       	pop	r28
 290:	1f 91       	pop	r17
 292:	08 95       	ret

00000294 <_Z10LcdCommandh>:
 294:	cf 93       	push	r28
 296:	c8 2f       	mov	r28, r24
 298:	60 e0       	ldi	r22, 0x00	; 0
 29a:	80 7f       	andi	r24, 0xF0	; 240
 29c:	c3 df       	rcall	.-122    	; 0x224 <_Z11Lcd4bitdatahb>
 29e:	60 e0       	ldi	r22, 0x00	; 0
 2a0:	8c 2f       	mov	r24, r28
 2a2:	82 95       	swap	r24
 2a4:	80 7f       	andi	r24, 0xF0	; 240
 2a6:	cf 91       	pop	r28
 2a8:	bd cf       	rjmp	.-134    	; 0x224 <_Z11Lcd4bitdatahb>

000002aa <_Z7LcdInith>:
 2aa:	cf 93       	push	r28
 2ac:	c8 2f       	mov	r28, r24
 2ae:	94 df       	rcall	.-216    	; 0x1d8 <_Z7TWIInitv>
 2b0:	88 e0       	ldi	r24, 0x08	; 8
 2b2:	80 93 76 00 	sts	0x0076, r24	; 0x800076 <__data_end>
 2b6:	2f ef       	ldi	r18, 0xFF	; 255
 2b8:	89 ef       	ldi	r24, 0xF9	; 249
 2ba:	90 e0       	ldi	r25, 0x00	; 0
 2bc:	21 50       	subi	r18, 0x01	; 1
 2be:	80 40       	sbci	r24, 0x00	; 0
 2c0:	90 40       	sbci	r25, 0x00	; 0
 2c2:	e1 f7       	brne	.-8      	; 0x2bc <_Z7LcdInith+0x12>
 2c4:	00 c0       	rjmp	.+0      	; 0x2c6 <_Z7LcdInith+0x1c>
 2c6:	00 00       	nop
 2c8:	c0 93 77 00 	sts	0x0077, r28	; 0x800077 <deviceAdress>
 2cc:	82 e0       	ldi	r24, 0x02	; 2
 2ce:	e2 df       	rcall	.-60     	; 0x294 <_Z10LcdCommandh>
 2d0:	88 e2       	ldi	r24, 0x28	; 40
 2d2:	e0 df       	rcall	.-64     	; 0x294 <_Z10LcdCommandh>
 2d4:	8c e0       	ldi	r24, 0x0C	; 12
 2d6:	de df       	rcall	.-68     	; 0x294 <_Z10LcdCommandh>
 2d8:	86 e0       	ldi	r24, 0x06	; 6
 2da:	dc df       	rcall	.-72     	; 0x294 <_Z10LcdCommandh>
 2dc:	81 e0       	ldi	r24, 0x01	; 1
 2de:	cf 91       	pop	r28
 2e0:	d9 cf       	rjmp	.-78     	; 0x294 <_Z10LcdCommandh>

000002e2 <_Z7LcdCharh>:
 2e2:	cf 93       	push	r28
 2e4:	c8 2f       	mov	r28, r24
 2e6:	61 e0       	ldi	r22, 0x01	; 1
 2e8:	80 7f       	andi	r24, 0xF0	; 240
 2ea:	9c df       	rcall	.-200    	; 0x224 <_Z11Lcd4bitdatahb>
 2ec:	61 e0       	ldi	r22, 0x01	; 1
 2ee:	8c 2f       	mov	r24, r28
 2f0:	82 95       	swap	r24
 2f2:	80 7f       	andi	r24, 0xF0	; 240
 2f4:	cf 91       	pop	r28
 2f6:	96 cf       	rjmp	.-212    	; 0x224 <_Z11Lcd4bitdatahb>

000002f8 <_Z9LcdStringPc>:
 2f8:	cf 93       	push	r28
 2fa:	df 93       	push	r29
 2fc:	ec 01       	movw	r28, r24
 2fe:	89 91       	ld	r24, Y+
 300:	88 23       	and	r24, r24
 302:	11 f0       	breq	.+4      	; 0x308 <_Z9LcdStringPc+0x10>
 304:	ee df       	rcall	.-36     	; 0x2e2 <_Z7LcdCharh>
 306:	fb cf       	rjmp	.-10     	; 0x2fe <_Z9LcdStringPc+0x6>
 308:	df 91       	pop	r29
 30a:	cf 91       	pop	r28
 30c:	08 95       	ret

0000030e <_Z12LcdSetCursorhhPc>:
 30e:	cf 93       	push	r28
 310:	df 93       	push	r29
 312:	ea 01       	movw	r28, r20
 314:	81 30       	cpi	r24, 0x01	; 1
 316:	49 f0       	breq	.+18     	; 0x32a <_Z12LcdSetCursorhhPc+0x1c>
 318:	30 f0       	brcs	.+12     	; 0x326 <_Z12LcdSetCursorhhPc+0x18>
 31a:	82 30       	cpi	r24, 0x02	; 2
 31c:	41 f0       	breq	.+16     	; 0x32e <_Z12LcdSetCursorhhPc+0x20>
 31e:	83 30       	cpi	r24, 0x03	; 3
 320:	39 f4       	brne	.+14     	; 0x330 <_Z12LcdSetCursorhhPc+0x22>
 322:	94 ed       	ldi	r25, 0xD4	; 212
 324:	05 c0       	rjmp	.+10     	; 0x330 <_Z12LcdSetCursorhhPc+0x22>
 326:	90 e8       	ldi	r25, 0x80	; 128
 328:	03 c0       	rjmp	.+6      	; 0x330 <_Z12LcdSetCursorhhPc+0x22>
 32a:	90 ec       	ldi	r25, 0xC0	; 192
 32c:	01 c0       	rjmp	.+2      	; 0x330 <_Z12LcdSetCursorhhPc+0x22>
 32e:	94 e9       	ldi	r25, 0x94	; 148
 330:	86 2f       	mov	r24, r22
 332:	8f 70       	andi	r24, 0x0F	; 15
 334:	89 2b       	or	r24, r25
 336:	ae df       	rcall	.-164    	; 0x294 <_Z10LcdCommandh>
 338:	ce 01       	movw	r24, r28
 33a:	df 91       	pop	r29
 33c:	cf 91       	pop	r28
 33e:	dc cf       	rjmp	.-72     	; 0x2f8 <_Z9LcdStringPc>

00000340 <_Z7InitADCv>:
 340:	3e 9a       	sbi	0x07, 6	; 7
 342:	86 b1       	in	r24, 0x06	; 6
 344:	87 68       	ori	r24, 0x87	; 135
 346:	86 b9       	out	0x06, r24	; 6
 348:	08 95       	ret

0000034a <main>:
 34a:	bd 9a       	sbi	0x17, 5	; 23
 34c:	f9 df       	rcall	.-14     	; 0x340 <_Z7InitADCv>
 34e:	80 e8       	ldi	r24, 0x80	; 128
 350:	95 e2       	ldi	r25, 0x25	; 37
 352:	85 de       	rcall	.-758    	; 0x5e <_Z10USART_Initj>
 354:	d5 de       	rcall	.-598    	; 0x100 <_Z13SoftUART_Initv>
 356:	87 e2       	ldi	r24, 0x27	; 39
 358:	a8 df       	rcall	.-176    	; 0x2aa <_Z7LcdInith>
 35a:	40 e6       	ldi	r20, 0x60	; 96
 35c:	50 e0       	ldi	r21, 0x00	; 0
 35e:	64 e0       	ldi	r22, 0x04	; 4
 360:	80 e0       	ldi	r24, 0x00	; 0
 362:	d5 df       	rcall	.-86     	; 0x30e <_Z12LcdSetCursorhhPc>
 364:	2f ef       	ldi	r18, 0xFF	; 255
 366:	83 ed       	ldi	r24, 0xD3	; 211
 368:	90 e3       	ldi	r25, 0x30	; 48
 36a:	21 50       	subi	r18, 0x01	; 1
 36c:	80 40       	sbci	r24, 0x00	; 0
 36e:	90 40       	sbci	r25, 0x00	; 0
 370:	e1 f7       	brne	.-8      	; 0x36a <main+0x20>
 372:	00 c0       	rjmp	.+0      	; 0x374 <main+0x2a>
 374:	00 00       	nop
 376:	88 e6       	ldi	r24, 0x68	; 104
 378:	90 e0       	ldi	r25, 0x00	; 0
 37a:	87 de       	rcall	.-754    	; 0x8a <_Z16USART_TxStringlnPc>
 37c:	8b e6       	ldi	r24, 0x6B	; 107
 37e:	90 e0       	ldi	r25, 0x00	; 0
 380:	1d df       	rcall	.-454    	; 0x1bc <_Z18SoftUSART_tx_strlnPc>
 382:	83 e7       	ldi	r24, 0x73	; 115
 384:	90 e0       	ldi	r25, 0x00	; 0
 386:	1a df       	rcall	.-460    	; 0x1bc <_Z18SoftUSART_tx_strlnPc>
 388:	2f ef       	ldi	r18, 0xFF	; 255
 38a:	83 ed       	ldi	r24, 0xD3	; 211
 38c:	90 e3       	ldi	r25, 0x30	; 48
 38e:	21 50       	subi	r18, 0x01	; 1
 390:	80 40       	sbci	r24, 0x00	; 0
 392:	90 40       	sbci	r25, 0x00	; 0
 394:	e1 f7       	brne	.-8      	; 0x38e <main+0x44>
 396:	00 c0       	rjmp	.+0      	; 0x398 <main+0x4e>
 398:	00 00       	nop
 39a:	ff cf       	rjmp	.-2      	; 0x39a <main+0x50>

0000039c <__udivmodsi4>:
 39c:	a1 e2       	ldi	r26, 0x21	; 33
 39e:	1a 2e       	mov	r1, r26
 3a0:	aa 1b       	sub	r26, r26
 3a2:	bb 1b       	sub	r27, r27
 3a4:	fd 01       	movw	r30, r26
 3a6:	0d c0       	rjmp	.+26     	; 0x3c2 <__udivmodsi4_ep>

000003a8 <__udivmodsi4_loop>:
 3a8:	aa 1f       	adc	r26, r26
 3aa:	bb 1f       	adc	r27, r27
 3ac:	ee 1f       	adc	r30, r30
 3ae:	ff 1f       	adc	r31, r31
 3b0:	a2 17       	cp	r26, r18
 3b2:	b3 07       	cpc	r27, r19
 3b4:	e4 07       	cpc	r30, r20
 3b6:	f5 07       	cpc	r31, r21
 3b8:	20 f0       	brcs	.+8      	; 0x3c2 <__udivmodsi4_ep>
 3ba:	a2 1b       	sub	r26, r18
 3bc:	b3 0b       	sbc	r27, r19
 3be:	e4 0b       	sbc	r30, r20
 3c0:	f5 0b       	sbc	r31, r21

000003c2 <__udivmodsi4_ep>:
 3c2:	66 1f       	adc	r22, r22
 3c4:	77 1f       	adc	r23, r23
 3c6:	88 1f       	adc	r24, r24
 3c8:	99 1f       	adc	r25, r25
 3ca:	1a 94       	dec	r1
 3cc:	69 f7       	brne	.-38     	; 0x3a8 <__udivmodsi4_loop>
 3ce:	60 95       	com	r22
 3d0:	70 95       	com	r23
 3d2:	80 95       	com	r24
 3d4:	90 95       	com	r25
 3d6:	9b 01       	movw	r18, r22
 3d8:	ac 01       	movw	r20, r24
 3da:	bd 01       	movw	r22, r26
 3dc:	cf 01       	movw	r24, r30
 3de:	08 95       	ret

000003e0 <_exit>:
 3e0:	f8 94       	cli

000003e2 <__stop_program>:
 3e2:	ff cf       	rjmp	.-2      	; 0x3e2 <__stop_program>
