
naveen.elf:     file format elf32-avr

Sections:
Idx Name          Size      VMA       LMA       File off  Algn
  0 .data         0000031a  00800100  00003134  000031c8  2**0
                  CONTENTS, ALLOC, LOAD, DATA
  1 .text         00003134  00000000  00000000  00000094  2**1
                  CONTENTS, ALLOC, LOAD, READONLY, CODE
  2 .bss          0000019c  0080041a  0080041a  000034e2  2**0
                  ALLOC
  3 .comment      0000005c  00000000  00000000  000034e2  2**0
                  CONTENTS, READONLY
  4 .note.gnu.avr.deviceinfo 00000040  00000000  00000000  00003540  2**2
                  CONTENTS, READONLY
  5 .debug_aranges 00000150  00000000  00000000  00003580  2**0
                  CONTENTS, READONLY, DEBUGGING
  6 .debug_info   00003240  00000000  00000000  000036d0  2**0
                  CONTENTS, READONLY, DEBUGGING
  7 .debug_abbrev 00000a4c  00000000  00000000  00006910  2**0
                  CONTENTS, READONLY, DEBUGGING
  8 .debug_line   00001447  00000000  00000000  0000735c  2**0
                  CONTENTS, READONLY, DEBUGGING
  9 .debug_frame  0000057c  00000000  00000000  000087a4  2**2
                  CONTENTS, READONLY, DEBUGGING
 10 .debug_str    00000b1b  00000000  00000000  00008d20  2**0
                  CONTENTS, READONLY, DEBUGGING
 11 .debug_loc    00002b29  00000000  00000000  0000983b  2**0
                  CONTENTS, READONLY, DEBUGGING
 12 .debug_ranges 000002b0  00000000  00000000  0000c364  2**0
                  CONTENTS, READONLY, DEBUGGING

Disassembly of section .text:

00000000 <__vectors>:
       0:	0c 94 25 05 	jmp	0xa4a	; 0xa4a <__ctors_end>
       4:	0c 94 42 05 	jmp	0xa84	; 0xa84 <__bad_interrupt>
       8:	0c 94 42 05 	jmp	0xa84	; 0xa84 <__bad_interrupt>
       c:	0c 94 42 05 	jmp	0xa84	; 0xa84 <__bad_interrupt>
      10:	0c 94 42 05 	jmp	0xa84	; 0xa84 <__bad_interrupt>
      14:	0c 94 42 05 	jmp	0xa84	; 0xa84 <__bad_interrupt>
      18:	0c 94 42 05 	jmp	0xa84	; 0xa84 <__bad_interrupt>
      1c:	0c 94 42 05 	jmp	0xa84	; 0xa84 <__bad_interrupt>
      20:	0c 94 42 05 	jmp	0xa84	; 0xa84 <__bad_interrupt>
      24:	0c 94 42 05 	jmp	0xa84	; 0xa84 <__bad_interrupt>
      28:	0c 94 42 05 	jmp	0xa84	; 0xa84 <__bad_interrupt>
      2c:	0c 94 42 05 	jmp	0xa84	; 0xa84 <__bad_interrupt>
      30:	0c 94 42 05 	jmp	0xa84	; 0xa84 <__bad_interrupt>
      34:	0c 94 42 05 	jmp	0xa84	; 0xa84 <__bad_interrupt>
      38:	0c 94 42 05 	jmp	0xa84	; 0xa84 <__bad_interrupt>
      3c:	0c 94 42 05 	jmp	0xa84	; 0xa84 <__bad_interrupt>
      40:	0c 94 42 05 	jmp	0xa84	; 0xa84 <__bad_interrupt>
      44:	0c 94 42 05 	jmp	0xa84	; 0xa84 <__bad_interrupt>
      48:	0c 94 3c 08 	jmp	0x1078	; 0x1078 <__vector_18>
      4c:	0c 94 42 05 	jmp	0xa84	; 0xa84 <__bad_interrupt>
      50:	0c 94 42 05 	jmp	0xa84	; 0xa84 <__bad_interrupt>
      54:	0c 94 42 05 	jmp	0xa84	; 0xa84 <__bad_interrupt>
      58:	0c 94 42 05 	jmp	0xa84	; 0xa84 <__bad_interrupt>
      5c:	0c 94 42 05 	jmp	0xa84	; 0xa84 <__bad_interrupt>
      60:	0c 94 42 05 	jmp	0xa84	; 0xa84 <__bad_interrupt>
      64:	0c 94 42 05 	jmp	0xa84	; 0xa84 <__bad_interrupt>

00000068 <__trampolines_end>:
      68:	6e 61       	ori	r22, 0x1E	; 30
      6a:	6e 00       	.word	0x006e	; ????

0000006c <__c.2332>:
      6c:	69 6e 66 00 00 40 7a 10 f3 5a 00 a0 72 4e 18 09     inf..@z..Z..rN..
      7c:	00 10 a5 d4 e8 00 00 e8 76 48 17 00 00 e4 0b 54     ........vH.....T
      8c:	02 00 00 ca 9a 3b 00 00 00 e1 f5 05 00 00 80 96     .....;..........
      9c:	98 00 00 00 40 42 0f 00 00 00 a0 86 01 00 00 00     ....@B..........
      ac:	10 27 00 00 00 00 e8 03 00 00 00 00 64 00 00 00     .'..........d...
      bc:	00 00 0a 00 00 00 00 00 01 00 00 00 00 00 2c 76     ..............,v
      cc:	d8 88 dc 67 4f 08 23 df c1 df ae 59 e1 b1 b7 96     ...gO.#....Y....
      dc:	e5 e3 e4 53 c6 3a e6 51 99 76 96 e8 e6 c2 84 26     ...S.:.Q.v.....&
      ec:	eb 89 8c 9b 62 ed 40 7c 6f fc ef bc 9c 9f 40 f2     ....b.@|o.....@.
      fc:	ba a5 6f a5 f4 90 05 5a 2a f7 5c 93 6b 6c f9 67     ..o....Z*.\.kl.g
     10c:	6d c1 1b fc e0 e4 0d 47 fe f5 20 e6 b5 00 d0 ed     m......G.. .....
     11c:	90 2e 03 00 94 35 77 05 00 80 84 1e 08 00 00 20     .....5w........ 
     12c:	4e 0a 00 00 00 c8 0c 33 33 33 33 0f 98 6e 12 83     N......3333..n..
     13c:	11 41 ef 8d 21 14 89 3b e6 55 16 cf fe e6 db 18     .A..!..;.U......
     14c:	d1 84 4b 38 1b f7 7c 1d 90 1d a4 bb e4 24 20 32     ..K8..|......$ 2
     15c:	84 72 5e 22 81 00 c9 f1 24 ec a1 e5 3d 27           .r^"....$...='

0000016a <_ZZ8makeHostvE3__c_5>:
     16a:	6e 6f 74 20 63 6f 6e 6e 65 63 74 65 64 00           not connected.

00000178 <_ZZ8makeHostvE3__c_4>:
     178:	52 6f 75 74 65 72 20 43 6f 6e 6e 65 63 74 65 64     Router Connected
	...

00000189 <_ZZ8makeHostvE3__c_3>:
     189:	20 20 20 20 20 20 20 20 20 20 20 20 20 20 20 20                     
	...

0000019a <_ZZ8makeHostvE3__c_2>:
     19a:	20 20 20 20 20 20 20 20 20 20 20 20 20 20 20 20                     
	...

000001ab <_ZZ8makeHostvE3__c_1>:
     1ab:	6c 6f 67 67 69 6e 20 66 61 69 6c 65 64 00           loggin failed.

000001b9 <_ZZ8makeHostvE3__c_0>:
     1b9:	6c 6f 67 67 69 6e 20 4f 4b 00                       loggin OK.

000001c3 <_ZZ8makeHostvE3__c>:
     1c3:	4d 61 6b 65 20 68 6f 73 74 00                       Make host.

000001cd <_ZZ16mainFunctionInitvE3__c>:
     1cd:	57 65 6c 63 6f 6d 65 00                             Welcome.

000001d5 <_ZZ4mainE3__c_4>:
     1d5:	52 6f 75 74 65 72 20 43 6f 6e 6e 65 63 74 65 64     Router Connected
	...

000001e6 <_ZZ4mainE3__c_3>:
     1e6:	52 6f 75 74 65 72 20 46 61 69 6c 00                 Router Fail.

000001f2 <_ZZ4mainE3__c_2>:
     1f2:	53 65 74 75 70 20 45 53 50 00                       Setup ESP.

000001fc <_ZZ4mainE3__c_1>:
     1fc:	45 53 50 20 4f 4b 00                                ESP OK.

00000203 <_ZZ4mainE3__c_0>:
     203:	44 65 76 69 63 65 20 52 65 73 74 61 72 74 69 6e     Device Restartin
     213:	67 2e 20 2e 20 2e 00                                g. . ..

0000021a <_ZZ4mainE3__c>:
     21a:	45 53 50 20 6e 6f 74 20 63 6f 6e 6e 65 63 74 65     ESP not connecte
     22a:	64 00                                               d.

0000022c <_ZL16ssd1306_init_cmd>:
     22c:	ae e3 20 00 b0 c8 00 10 40 a4 a1 a6 81 ff a8 3f     .. .....@......?
     23c:	d3 00 d5 f0 d9 22 da 12 db 20 8d 14 af              ....."... ...

00000249 <_ZL4font>:
	...
     251:	7e 81 95 b1 b1 95 81 7e 7e ff eb cf cf eb ff 7e     ~......~~......~
     261:	0e 1f 3f 7e 3f 1f 0e 00 08 1c 3e 7f 3e 1c 08 00     ..?~?.....>.>...
     271:	38 3a 9f ff 9f 3a 38 00 10 38 bc ff bc 38 10 00     8:...:8..8...8..
	...
     2a1:	70 f8 88 88 fd 7f 07 0f 00 4e 5f f1 f1 5f 4e 00     p........N_.._N.
	...
     2b9:	c0 ff 7f 05 05 65 7f 3f 99 5a 3c e7 e7 3c 5a 99     .....e.?.Z<..<Z.
     2c9:	7f 3e 3e 1c 1c 08 08 00 08 08 1c 1c 3e 3e 7f 00     .>>.........>>..
     2d9:	00 24 66 ff ff 66 24 00 00 5f 5f 00 00 5f 5f 00     .$f..f$..__..__.
     2e9:	06 0f 09 7f 7f 01 7f 7f da bf a5 a5 fd 59 03 02     .............Y..
     2f9:	00 70 70 70 70 70 70 00 80 94 b6 ff ff b6 94 80     .pppppp.........
     309:	00 04 06 7f 7f 06 04 00 00 10 30 7f 7f 30 10 00     ..........0..0..
     319:	08 08 08 2a 3e 1c 08 00 08 1c 3e 2a 08 08 08 00     ...*>.....>*....
     329:	3c 3c 20 20 20 20 20 00 08 1c 3e 08 08 3e 1c 08     <<     ...>..>..
     339:	30 38 3c 3e 3e 3c 38 30 06 0e 1e 3e 3e 1e 0e 06     08<>><80...>>...
	...
     351:	00 06 5f 5f 06 00 00 00 00 07 07 00 07 07 00 00     ..__............
     361:	14 7f 7f 14 7f 7f 14 00 24 2e 6b 6b 3a 12 00 00     ........$.kk:...
     371:	46 66 30 18 0c 66 62 00 30 7a 4f 5d 37 7a 48 00     Ff0..fb.0zO]7zH.
     381:	04 07 03 00 00 00 00 00 00 1c 3e 63 41 00 00 00     ..........>cA...
     391:	00 41 63 3e 1c 00 00 00 08 2a 3e 1c 1c 3e 2a 08     .Ac>.....*>..>*.
     3a1:	08 08 3e 3e 08 08 00 00 00 a0 e0 60 00 00 00 00     ..>>.......`....
     3b1:	08 08 08 08 08 08 00 00 00 00 60 60 00 00 00 00     ..........``....
     3c1:	60 30 18 0c 06 03 01 00 3e 7f 59 4d 7f 3e 00 00     `0......>.YM.>..
     3d1:	42 42 7f 7f 40 40 00 00 62 73 59 49 6f 66 00 00     BB..@@..bsYIof..
     3e1:	22 63 49 49 7f 36 00 00 18 1c 16 13 7f 7f 10 00     "cII.6..........
     3f1:	27 67 45 45 7d 39 00 00 3c 7e 4b 49 79 30 00 00     'gEE}9..<~KIy0..
     401:	03 63 71 19 0f 07 00 00 36 7f 49 49 7f 36 00 00     .cq.....6.II.6..
     411:	06 4f 49 69 3f 1e 00 00 00 00 6c 6c 00 00 00 00     .OIi?.....ll....
     421:	00 a0 ec 6c 00 00 00 00 08 1c 36 63 41 00 00 00     ...l......6cA...
     431:	14 14 14 14 14 14 00 00 00 41 63 36 1c 08 00 00     .........Ac6....
     441:	02 03 51 59 0f 06 00 00 3e 7f 41 5d 5d 1f 1e 00     ..QY....>.A]]...
     451:	7c 7e 13 13 7e 7c 00 00 41 7f 7f 49 49 7f 36 00     |~..~|..A..II.6.
     461:	1c 3e 63 41 41 63 22 00 41 7f 7f 41 63 7f 1c 00     .>cAAc".A..Ac...
     471:	41 7f 7f 49 5d 41 63 00 41 7f 7f 49 1d 01 03 00     A..I]Ac.A..I....
     481:	1c 3e 63 41 51 73 72 00 7f 7f 08 08 7f 7f 00 00     .>cAQsr.........
     491:	00 41 7f 7f 41 00 00 00 30 70 40 41 7f 3f 01 00     .A..A...0p@A.?..
     4a1:	41 7f 7f 08 1c 77 63 00 41 7f 7f 41 40 60 70 00     A....wc.A..A@`p.
     4b1:	7f 7f 06 0c 06 7f 7f 00 7f 7f 06 0c 18 7f 7f 00     ................
     4c1:	1c 3e 63 41 63 3e 1c 00 41 7f 7f 49 09 0f 06 00     .>cAc>..A..I....
     4d1:	1e 3f 21 71 7f 5e 00 00 41 7f 7f 19 39 6f 46 00     .?!q.^..A...9oF.
     4e1:	26 67 4d 59 7b 32 00 00 03 41 7f 7f 41 03 00 00     &gMY{2...A..A...
     4f1:	7f 7f 40 40 7f 7f 00 00 1f 3f 60 60 3f 1f 00 00     ..@@.....?``?...
     501:	7f 7f 30 18 30 7f 7f 00 63 77 1c 08 1c 77 63 00     ..0.0...cw...wc.
     511:	07 4f 78 78 4f 07 00 00 67 73 59 4d 47 63 71 00     .OxxO...gsYMGcq.
     521:	00 7f 7f 41 41 00 00 00 01 03 06 0c 18 30 60 00     ...AA........0`.
     531:	00 41 41 7f 7f 00 00 00 08 0c 06 03 06 0c 08 00     .AA.............
     541:	80 80 80 80 80 80 80 80 00 00 03 07 04 00 00 00     ................
     551:	20 74 54 54 3c 78 40 00 41 3f 7f 44 44 7c 38 00      tTT<x@.A?.DD|8.
     561:	38 7c 44 44 6c 28 00 00 30 78 48 49 3f 7f 40 00     8|DDl(..0xHI?.@.
     571:	38 7c 54 54 5c 18 00 00 48 7e 7f 49 03 02 00 00     8|TT\...H~.I....
     581:	98 bc a4 a4 f8 7c 04 00 41 7f 7f 08 04 7c 78 00     .....|..A....|x.
     591:	00 44 7d 7d 40 00 00 00 40 c4 84 fd 7d 00 00 00     .D}}@...@...}...
     5a1:	41 7f 7f 10 38 6c 44 00 00 41 7f 7f 40 00 00 00     A...8lD..A..@...
     5b1:	7c 7c 0c 18 0c 7c 78 00 7c 7c 04 04 7c 78 00 00     ||...|x.||..|x..
     5c1:	38 7c 44 44 7c 38 00 00 84 fc f8 a4 24 3c 18 00     8|DD|8......$<..
     5d1:	18 3c 24 a4 f8 fc 84 00 44 7c 78 44 1c 18 00 00     .<$.....D|xD....
     5e1:	48 5c 54 54 74 24 00 00 00 04 3e 7f 44 24 00 00     H\TTt$....>.D$..
     5f1:	3c 7c 40 40 3c 7c 40 00 1c 3c 60 60 3c 1c 00 00     <|@@<|@..<``<...
     601:	3c 7c 60 30 60 7c 3c 00 44 6c 38 10 38 6c 44 00     <|`0`|<.Dl8.8lD.
     611:	9c bc a0 a0 fc 7c 00 00 4c 64 74 5c 4c 64 00 00     .....|..Ldt\Ld..
     621:	08 08 3e 77 41 41 00 00 00 00 00 77 77 00 00 00     ..>wAA.....ww...
     631:	41 41 77 3e 08 08 00 00 02 03 01 03 02 03 01 00     AAw>............
     641:	78 7c 46 43 46 7c 78 00 1e bf e1 61 33 12 00 00     x|FCF|x....a3...
     651:	3a 7a 40 40 7a 7a 40 00 38 7c 56 57 5d 18 00 00     :z@@zz@.8|VW]...
     661:	02 23 75 55 55 7d 7b 42 21 75 54 54 7d 79 40 00     .#uUU}{B!uTT}y@.
     671:	20 75 57 56 7c 78 40 00 00 22 77 55 55 7f 7a 40      uWV|x@.."wUU.z@
     681:	1c be e2 62 36 14 00 00 02 3b 7d 55 55 5d 1b 02     ...b6....;}UU]..
     691:	39 7d 54 54 5d 19 00 00 38 7d 57 56 5c 18 00 00     9}TT]...8}WV\...
     6a1:	01 45 7c 7c 41 01 00 00 02 03 45 7d 7d 43 02 00     .E||A.....E}}C..
     6b1:	00 45 7f 7e 40 00 00 00 79 7d 26 26 7d 79 00 00     .E.~@...y}&&}y..
     6c1:	70 7a 2d 2d 7a 70 00 00 44 7c 7e 57 55 44 00 00     pz--zp..D|~WUD..
     6d1:	20 74 54 54 7c 7c 54 54 7c 7e 0b 09 7f 7f 49 00      tTT||TT|~....I.
     6e1:	32 7b 49 49 7b 32 00 00 32 7a 48 48 7a 32 00 00     2{II{2..2zHHz2..
     6f1:	30 79 4b 4a 78 30 00 00 3a 7b 41 41 7b 7a 40 00     0yKJx0..:{AA{z@.
     701:	38 79 43 42 78 78 40 00 ba ba a0 a0 fa 7a 00 00     8yCBxx@......z..
     711:	39 7d 44 44 44 7d 39 00 3d 7d 40 40 7d 3d 00 00     9}DDD}9.=}@@}=..
     721:	38 7c 64 54 4c 7c 38 00 68 7e 7f 49 43 66 20 00     8|dTL|8.h~.ICf .
     731:	5c 3e 73 49 67 3e 1d 00 44 6c 38 38 6c 44 00 00     \>sIg>..Dl88lD..
     741:	40 c8 88 fe 7f 09 0b 02 20 74 56 57 7d 78 40 00     @....... tVW}x@.
     751:	00 44 7e 7f 41 00 00 00 30 78 48 4a 7b 31 00 00     .D~.A...0xHJ{1..
     761:	38 78 40 42 7b 79 40 00 7a 7b 09 0b 7a 73 01 00     8x@B{y@.z{..zs..
     771:	7a 7b 19 33 7a 7b 01 00 00 26 2f 29 2f 2f 28 00     z{.3z{...&/)//(.
     781:	00 26 2f 29 29 2f 26 00 30 78 4d 45 60 20 00 00     .&/))/&.0xME` ..
     791:	1c 22 7d 4b 5b 65 22 1c 08 08 08 08 38 38 00 00     ."}K[e".....88..
     7a1:	61 3f 1f cc ee ab b9 90 61 3f 1f 4c 66 73 d9 f8     a?......a?.Lfs..
     7b1:	00 00 60 fa fa 60 00 00 08 1c 36 22 08 1c 36 22     ..`..`....6"..6"
     7c1:	22 36 1c 08 22 36 1c 08 aa 00 55 00 aa 00 55 00     "6.."6....U...U.
     7d1:	aa 55 aa 55 aa 55 aa 55 55 ff aa ff 55 ff aa ff     .U.U.U.UU...U...
     7e1:	00 00 00 ff ff 00 00 00 10 10 10 ff ff 00 00 00     ................
     7f1:	70 78 2c 2e 7b 71 00 00 72 79 2d 2d 79 72 00 00     px,.{q..ry--yr..
     801:	71 7b 2e 2c 78 70 00 00 1c 22 5d 55 55 41 22 1c     q{.,xp..."]UUA".
     811:	14 14 f7 f7 00 ff ff 00 00 00 ff ff 00 ff ff 00     ................
     821:	14 14 f4 f4 04 fc fc 00 14 14 17 17 10 1f 1f 00     ................
     831:	18 3c 24 e7 e7 24 24 00 2b 2f fc fc 2f 2b 00 00     .<$..$$.+/../+..
     841:	10 10 10 f0 f0 00 00 00 00 00 00 1f 1f 10 10 10     ................
     851:	10 10 10 1f 1f 10 10 10 10 10 10 f0 f0 10 10 10     ................
     861:	00 00 00 ff ff 10 10 10 10 10 10 10 10 10 10 10     ................
     871:	10 10 10 ff ff 10 10 10 22 77 55 57 7e 7b 41 00     ........"wUW~{A.
     881:	72 7b 2d 2f 7a 73 01 00 00 00 1f 1f 10 17 17 14     r{-/zs..........
     891:	00 00 fc fc 04 f4 f4 14 14 14 17 17 10 17 17 14     ................
     8a1:	14 14 f4 f4 04 f4 f4 14 00 00 ff ff 00 f7 f7 14     ................
     8b1:	14 14 14 14 14 14 14 14 14 14 f7 f7 00 f7 f7 14     ................
     8c1:	66 3c 3c 24 3c 3c 66 00 05 27 72 57 7d 38 00 00     f<<$<<f..'rW}8..
     8d1:	49 7f 7f 49 63 7f 1c 00 46 7d 7d 55 55 46 00 00     I..Ic...F}}UUF..
     8e1:	45 7d 7c 54 55 45 00 00 44 7d 7f 56 54 44 00 00     E}|TUE..D}.VTD..
     8f1:	0a 0e 08 00 00 00 00 00 00 44 7e 7f 45 00 00 00     .........D~.E...
     901:	02 45 7d 7d 45 02 00 00 01 45 7c 7c 45 01 00 00     .E}}E....E||E...
     911:	10 10 10 1f 1f 00 00 00 00 00 00 f0 f0 10 10 10     ................
     921:	ff ff ff ff ff ff ff ff f0 f0 f0 f0 f0 f0 f0 f0     ................
     931:	00 00 00 77 77 00 00 00 00 45 7f 7e 44 00 00 00     ...ww....E.~D...
     941:	0f 0f 0f 0f 0f 0f 0f 0f 38 7c 46 47 45 7c 38 00     ........8|FGE|8.
     951:	fc fe 2a 2a 3e 14 00 00 3a 7d 45 45 45 7d 3a 00     ..**>...:}EEE}:.
     961:	38 7c 45 47 46 7c 38 00 32 7b 49 4b 7a 33 01 00     8|EGF|8.2{IKz3..
     971:	3a 7f 45 47 46 7f 39 00 80 fe 7e 20 20 3e 1e 00     :.EGF.9...~  >..
     981:	42 7e 7e 54 1c 08 00 00 41 7f 7f 55 14 1c 08 00     B~~T....A..U....
     991:	3c 7c 42 43 7d 3c 00 00 3a 79 41 41 79 3a 00 00     <|BC}<..:yAAy:..
     9a1:	3c 7d 43 42 7c 3c 00 00 b8 b8 a2 a3 f9 78 00 00     <}CB|<.......x..
     9b1:	0c 5c 72 73 5d 0c 00 00 02 02 02 02 02 02 00 00     .\rs]...........
     9c1:	00 00 02 03 01 00 00 00 10 10 10 10 10 10 00 00     ................
     9d1:	44 44 5f 5f 44 44 00 00 28 28 28 28 28 28 00 00     DD__DD..((((((..
     9e1:	71 35 1f 4c 66 73 d9 f8 06 0f 09 7f 7f 01 7f 7f     q5.Lfs..........
     9f1:	da bf a5 a5 fd 59 03 02 08 08 6b 6b 08 08 00 00     .....Y....kk....
     a01:	00 80 c0 40 00 00 00 00 00 06 0f 09 0f 06 00 00     ...@............
     a11:	02 02 00 00 02 02 00 00 00 00 00 10 10 00 00 00     ................
     a21:	00 12 13 1f 1f 10 10 00 00 11 15 15 1f 1f 0a 00     ................
     a31:	00 19 1d 15 17 12 00 00 00 00 3c 3c 3c 3c 00 00     ..........<<<<..
	...

00000a4a <__ctors_end>:
     a4a:	11 24       	eor	r1, r1
     a4c:	1f be       	out	0x3f, r1	; 63
     a4e:	cf ef       	ldi	r28, 0xFF	; 255
     a50:	d8 e0       	ldi	r29, 0x08	; 8
     a52:	de bf       	out	0x3e, r29	; 62
     a54:	cd bf       	out	0x3d, r28	; 61

00000a56 <__do_copy_data>:
     a56:	14 e0       	ldi	r17, 0x04	; 4
     a58:	a0 e0       	ldi	r26, 0x00	; 0
     a5a:	b1 e0       	ldi	r27, 0x01	; 1
     a5c:	e4 e3       	ldi	r30, 0x34	; 52
     a5e:	f1 e3       	ldi	r31, 0x31	; 49
     a60:	02 c0       	rjmp	.+4      	; 0xa66 <__do_copy_data+0x10>
     a62:	05 90       	lpm	r0, Z+
     a64:	0d 92       	st	X+, r0
     a66:	aa 31       	cpi	r26, 0x1A	; 26
     a68:	b1 07       	cpc	r27, r17
     a6a:	d9 f7       	brne	.-10     	; 0xa62 <__do_copy_data+0xc>

00000a6c <__do_clear_bss>:
     a6c:	25 e0       	ldi	r18, 0x05	; 5
     a6e:	aa e1       	ldi	r26, 0x1A	; 26
     a70:	b4 e0       	ldi	r27, 0x04	; 4
     a72:	01 c0       	rjmp	.+2      	; 0xa76 <.do_clear_bss_start>

00000a74 <.do_clear_bss_loop>:
     a74:	1d 92       	st	X+, r1

00000a76 <.do_clear_bss_start>:
     a76:	a6 3b       	cpi	r26, 0xB6	; 182
     a78:	b2 07       	cpc	r27, r18
     a7a:	e1 f7       	brne	.-8      	; 0xa74 <.do_clear_bss_loop>
     a7c:	0e 94 03 0f 	call	0x1e06	; 0x1e06 <main>
     a80:	0c 94 98 18 	jmp	0x3130	; 0x3130 <_exit>

00000a84 <__bad_interrupt>:
     a84:	0c 94 00 00 	jmp	0	; 0x0 <__vectors>

00000a88 <_Z7TWIInitv>:
		}
		if (((PIND&0b10000000)>>7))
		{break;
		}
	}
	distance=disCount/148;
     a88:	88 b1       	in	r24, 0x08	; 8
     a8a:	80 63       	ori	r24, 0x30	; 48
     a8c:	88 b9       	out	0x08, r24	; 8
     a8e:	84 e0       	ldi	r24, 0x04	; 4
     a90:	80 93 bc 00 	sts	0x00BC, r24	; 0x8000bc <__TEXT_REGION_LENGTH__+0x7f80bc>
     a94:	10 92 b9 00 	sts	0x00B9, r1	; 0x8000b9 <__TEXT_REGION_LENGTH__+0x7f80b9>
     a98:	82 e0       	ldi	r24, 0x02	; 2
     a9a:	80 93 b8 00 	sts	0x00B8, r24	; 0x8000b8 <__TEXT_REGION_LENGTH__+0x7f80b8>
     a9e:	08 95       	ret

00000aa0 <_Z8TWIStartv>:
     aa0:	94 ea       	ldi	r25, 0xA4	; 164
     aa2:	90 93 bc 00 	sts	0x00BC, r25	; 0x8000bc <__TEXT_REGION_LENGTH__+0x7f80bc>
     aa6:	ec eb       	ldi	r30, 0xBC	; 188
     aa8:	f0 e0       	ldi	r31, 0x00	; 0
     aaa:	90 81       	ld	r25, Z
     aac:	99 23       	and	r25, r25
     aae:	2c f0       	brlt	.+10     	; 0xaba <_Z8TWIStartv+0x1a>
     ab0:	8f 5f       	subi	r24, 0xFF	; 255
     ab2:	85 36       	cpi	r24, 0x65	; 101
     ab4:	d0 f3       	brcs	.-12     	; 0xaaa <_Z8TWIStartv+0xa>
     ab6:	81 e0       	ldi	r24, 0x01	; 1
     ab8:	08 95       	ret
     aba:	80 e0       	ldi	r24, 0x00	; 0
     abc:	08 95       	ret

00000abe <_Z7TWIStopv>:
     abe:	84 e9       	ldi	r24, 0x94	; 148
     ac0:	80 93 bc 00 	sts	0x00BC, r24	; 0x8000bc <__TEXT_REGION_LENGTH__+0x7f80bc>
     ac4:	ec eb       	ldi	r30, 0xBC	; 188
     ac6:	f0 e0       	ldi	r31, 0x00	; 0
     ac8:	90 81       	ld	r25, Z
     aca:	89 2f       	mov	r24, r25
     acc:	80 71       	andi	r24, 0x10	; 16
     ace:	94 ff       	sbrs	r25, 4
     ad0:	04 c0       	rjmp	.+8      	; 0xada <_Z7TWIStopv+0x1c>
     ad2:	2f 5f       	subi	r18, 0xFF	; 255
     ad4:	25 36       	cpi	r18, 0x65	; 101
     ad6:	c0 f3       	brcs	.-16     	; 0xac8 <_Z7TWIStopv+0xa>
     ad8:	81 e0       	ldi	r24, 0x01	; 1
     ada:	08 95       	ret

00000adc <_Z8TWIWriteh>:
     adc:	80 93 bb 00 	sts	0x00BB, r24	; 0x8000bb <__TEXT_REGION_LENGTH__+0x7f80bb>
     ae0:	84 e8       	ldi	r24, 0x84	; 132
     ae2:	80 93 bc 00 	sts	0x00BC, r24	; 0x8000bc <__TEXT_REGION_LENGTH__+0x7f80bc>
     ae6:	ec eb       	ldi	r30, 0xBC	; 188
     ae8:	f0 e0       	ldi	r31, 0x00	; 0
     aea:	80 81       	ld	r24, Z
     aec:	88 23       	and	r24, r24
     aee:	ec f7       	brge	.-6      	; 0xaea <_Z8TWIWriteh+0xe>
     af0:	80 91 b9 00 	lds	r24, 0x00B9	; 0x8000b9 <__TEXT_REGION_LENGTH__+0x7f80b9>
     af4:	88 7f       	andi	r24, 0xF8	; 248
     af6:	08 95       	ret

00000af8 <_Z11oled_gotoxyhh>:
     af8:	cf 93       	push	r28
     afa:	df 93       	push	r29
     afc:	c8 2f       	mov	r28, r24
     afe:	d6 2f       	mov	r29, r22
     b00:	80 93 b5 05 	sts	0x05B5, r24	; 0x8005b5 <_ZL6oled_x>
     b04:	60 93 b4 05 	sts	0x05B4, r22	; 0x8005b4 <_ZL6oled_y>
     b08:	0e 94 50 05 	call	0xaa0	; 0xaa0 <_Z8TWIStartv>
     b0c:	88 e7       	ldi	r24, 0x78	; 120
     b0e:	0e 94 6e 05 	call	0xadc	; 0xadc <_Z8TWIWriteh>
     b12:	80 e0       	ldi	r24, 0x00	; 0
     b14:	0e 94 6e 05 	call	0xadc	; 0xadc <_Z8TWIWriteh>
     b18:	8d 2f       	mov	r24, r29
     b1a:	80 6b       	ori	r24, 0xB0	; 176
     b1c:	0e 94 6e 05 	call	0xadc	; 0xadc <_Z8TWIWriteh>
     b20:	81 e2       	ldi	r24, 0x21	; 33
     b22:	0e 94 6e 05 	call	0xadc	; 0xadc <_Z8TWIWriteh>
     b26:	8c 2f       	mov	r24, r28
     b28:	88 0f       	add	r24, r24
     b2a:	88 0f       	add	r24, r24
     b2c:	88 0f       	add	r24, r24
     b2e:	0e 94 6e 05 	call	0xadc	; 0xadc <_Z8TWIWriteh>
     b32:	8f e7       	ldi	r24, 0x7F	; 127
     b34:	0e 94 6e 05 	call	0xadc	; 0xadc <_Z8TWIWriteh>
     b38:	0e 94 5f 05 	call	0xabe	; 0xabe <_Z7TWIStopv>
     b3c:	df 91       	pop	r29
     b3e:	cf 91       	pop	r28
     b40:	08 95       	ret

00000b42 <_Z17oled_clear_screenv>:
     b42:	cf 93       	push	r28
     b44:	df 93       	push	r29
     b46:	60 e0       	ldi	r22, 0x00	; 0
     b48:	80 e0       	ldi	r24, 0x00	; 0
     b4a:	0e 94 7c 05 	call	0xaf8	; 0xaf8 <_Z11oled_gotoxyhh>
     b4e:	0e 94 50 05 	call	0xaa0	; 0xaa0 <_Z8TWIStartv>
     b52:	88 e7       	ldi	r24, 0x78	; 120
     b54:	0e 94 6e 05 	call	0xadc	; 0xadc <_Z8TWIWriteh>
     b58:	80 e4       	ldi	r24, 0x40	; 64
     b5a:	0e 94 6e 05 	call	0xadc	; 0xadc <_Z8TWIWriteh>
     b5e:	c0 e0       	ldi	r28, 0x00	; 0
     b60:	d8 e0       	ldi	r29, 0x08	; 8
     b62:	80 e0       	ldi	r24, 0x00	; 0
     b64:	0e 94 6e 05 	call	0xadc	; 0xadc <_Z8TWIWriteh>
     b68:	21 97       	sbiw	r28, 0x01	; 1
     b6a:	d9 f7       	brne	.-10     	; 0xb62 <_Z17oled_clear_screenv+0x20>
     b6c:	0e 94 5f 05 	call	0xabe	; 0xabe <_Z7TWIStopv>
     b70:	60 e0       	ldi	r22, 0x00	; 0
     b72:	80 e0       	ldi	r24, 0x00	; 0
     b74:	0e 94 7c 05 	call	0xaf8	; 0xaf8 <_Z11oled_gotoxyhh>
     b78:	df 91       	pop	r29
     b7a:	cf 91       	pop	r28
     b7c:	08 95       	ret

00000b7e <_Z9oled_initv>:
     b7e:	0f 93       	push	r16
     b80:	1f 93       	push	r17
     b82:	cf 93       	push	r28
     b84:	df 93       	push	r29
     b86:	0e 94 44 05 	call	0xa88	; 0xa88 <_Z7TWIInitv>
     b8a:	0e 94 50 05 	call	0xaa0	; 0xaa0 <_Z8TWIStartv>
     b8e:	88 e7       	ldi	r24, 0x78	; 120
     b90:	0e 94 6e 05 	call	0xadc	; 0xadc <_Z8TWIWriteh>
     b94:	80 e0       	ldi	r24, 0x00	; 0
     b96:	0e 94 6e 05 	call	0xadc	; 0xadc <_Z8TWIWriteh>
     b9a:	cc e2       	ldi	r28, 0x2C	; 44
     b9c:	d2 e0       	ldi	r29, 0x02	; 2
     b9e:	09 e4       	ldi	r16, 0x49	; 73
     ba0:	12 e0       	ldi	r17, 0x02	; 2
     ba2:	fe 01       	movw	r30, r28
     ba4:	84 91       	lpm	r24, Z
     ba6:	0e 94 6e 05 	call	0xadc	; 0xadc <_Z8TWIWriteh>
     baa:	21 96       	adiw	r28, 0x01	; 1
     bac:	c0 17       	cp	r28, r16
     bae:	d1 07       	cpc	r29, r17
     bb0:	c1 f7       	brne	.-16     	; 0xba2 <_Z9oled_initv+0x24>
     bb2:	0e 94 5f 05 	call	0xabe	; 0xabe <_Z7TWIStopv>
     bb6:	0e 94 a1 05 	call	0xb42	; 0xb42 <_Z17oled_clear_screenv>
     bba:	df 91       	pop	r29
     bbc:	cf 91       	pop	r28
     bbe:	1f 91       	pop	r17
     bc0:	0f 91       	pop	r16
     bc2:	08 95       	ret

00000bc4 <_Z15oled_write_charc>:
     bc4:	9f 92       	push	r9
     bc6:	af 92       	push	r10
     bc8:	bf 92       	push	r11
     bca:	cf 92       	push	r12
     bcc:	df 92       	push	r13
     bce:	ef 92       	push	r14
     bd0:	ff 92       	push	r15
     bd2:	0f 93       	push	r16
     bd4:	1f 93       	push	r17
     bd6:	cf 93       	push	r28
     bd8:	df 93       	push	r29
     bda:	08 2f       	mov	r16, r24
     bdc:	80 91 b3 05 	lds	r24, 0x05B3	; 0x8005b3 <_ZL9font_size>
     be0:	88 23       	and	r24, r24
     be2:	09 f4       	brne	.+2      	; 0xbe6 <_Z15oled_write_charc+0x22>
     be4:	9f c0       	rjmp	.+318    	; 0xd24 <_Z15oled_write_charc+0x160>
     be6:	60 91 b4 05 	lds	r22, 0x05B4	; 0x8005b4 <_ZL6oled_y>
     bea:	80 91 b5 05 	lds	r24, 0x05B5	; 0x8005b5 <_ZL6oled_x>
     bee:	0e 94 7c 05 	call	0xaf8	; 0xaf8 <_Z11oled_gotoxyhh>
     bf2:	0e 94 50 05 	call	0xaa0	; 0xaa0 <_Z8TWIStartv>
     bf6:	88 e7       	ldi	r24, 0x78	; 120
     bf8:	0e 94 6e 05 	call	0xadc	; 0xadc <_Z8TWIWriteh>
     bfc:	80 e4       	ldi	r24, 0x40	; 64
     bfe:	0e 94 6e 05 	call	0xadc	; 0xadc <_Z8TWIWriteh>
     c02:	c0 2f       	mov	r28, r16
     c04:	d0 e0       	ldi	r29, 0x00	; 0
     c06:	8e 01       	movw	r16, r28
     c08:	00 0f       	add	r16, r16
     c0a:	11 1f       	adc	r17, r17
     c0c:	00 0f       	add	r16, r16
     c0e:	11 1f       	adc	r17, r17
     c10:	00 0f       	add	r16, r16
     c12:	11 1f       	adc	r17, r17
     c14:	07 5b       	subi	r16, 0xB7	; 183
     c16:	1d 4f       	sbci	r17, 0xFD	; 253
     c18:	cc 0f       	add	r28, r28
     c1a:	dd 1f       	adc	r29, r29
     c1c:	cc 0f       	add	r28, r28
     c1e:	dd 1f       	adc	r29, r29
     c20:	cc 0f       	add	r28, r28
     c22:	dd 1f       	adc	r29, r29
     c24:	cf 5a       	subi	r28, 0xAF	; 175
     c26:	dd 4f       	sbci	r29, 0xFD	; 253
     c28:	68 01       	movw	r12, r16
     c2a:	f6 01       	movw	r30, r12
     c2c:	24 91       	lpm	r18, Z
     c2e:	82 2f       	mov	r24, r18
     c30:	82 70       	andi	r24, 0x02	; 2
     c32:	90 e0       	ldi	r25, 0x00	; 0
     c34:	88 0f       	add	r24, r24
     c36:	99 1f       	adc	r25, r25
     c38:	20 fb       	bst	r18, 0
     c3a:	aa 24       	eor	r10, r10
     c3c:	a0 f8       	bld	r10, 0
     c3e:	b1 2c       	mov	r11, r1
     c40:	8a 0d       	add	r24, r10
     c42:	9b 1d       	adc	r25, r11
     c44:	42 2f       	mov	r20, r18
     c46:	44 70       	andi	r20, 0x04	; 4
     c48:	50 e0       	ldi	r21, 0x00	; 0
     c4a:	44 0f       	add	r20, r20
     c4c:	55 1f       	adc	r21, r21
     c4e:	44 0f       	add	r20, r20
     c50:	55 1f       	adc	r21, r21
     c52:	84 0f       	add	r24, r20
     c54:	95 1f       	adc	r25, r21
     c56:	28 70       	andi	r18, 0x08	; 8
     c58:	30 e0       	ldi	r19, 0x00	; 0
     c5a:	22 0f       	add	r18, r18
     c5c:	33 1f       	adc	r19, r19
     c5e:	22 0f       	add	r18, r18
     c60:	33 1f       	adc	r19, r19
     c62:	22 0f       	add	r18, r18
     c64:	33 1f       	adc	r19, r19
     c66:	82 0f       	add	r24, r18
     c68:	93 1f       	adc	r25, r19
     c6a:	98 2e       	mov	r9, r24
     c6c:	99 0c       	add	r9, r9
     c6e:	98 0e       	add	r9, r24
     c70:	89 2d       	mov	r24, r9
     c72:	0e 94 6e 05 	call	0xadc	; 0xadc <_Z8TWIWriteh>
     c76:	89 2d       	mov	r24, r9
     c78:	0e 94 6e 05 	call	0xadc	; 0xadc <_Z8TWIWriteh>
     c7c:	ff ef       	ldi	r31, 0xFF	; 255
     c7e:	cf 1a       	sub	r12, r31
     c80:	df 0a       	sbc	r13, r31
     c82:	cc 16       	cp	r12, r28
     c84:	dd 06       	cpc	r13, r29
     c86:	89 f6       	brne	.-94     	; 0xc2a <_Z15oled_write_charc+0x66>
     c88:	0e 94 5f 05 	call	0xabe	; 0xabe <_Z7TWIStopv>
     c8c:	60 91 b4 05 	lds	r22, 0x05B4	; 0x8005b4 <_ZL6oled_y>
     c90:	6f 5f       	subi	r22, 0xFF	; 255
     c92:	80 91 b5 05 	lds	r24, 0x05B5	; 0x8005b5 <_ZL6oled_x>
     c96:	0e 94 7c 05 	call	0xaf8	; 0xaf8 <_Z11oled_gotoxyhh>
     c9a:	0e 94 50 05 	call	0xaa0	; 0xaa0 <_Z8TWIStartv>
     c9e:	88 e7       	ldi	r24, 0x78	; 120
     ca0:	0e 94 6e 05 	call	0xadc	; 0xadc <_Z8TWIWriteh>
     ca4:	80 e4       	ldi	r24, 0x40	; 64
     ca6:	0e 94 6e 05 	call	0xadc	; 0xadc <_Z8TWIWriteh>
     caa:	f8 01       	movw	r30, r16
     cac:	24 91       	lpm	r18, Z
     cae:	22 95       	swap	r18
     cb0:	2f 70       	andi	r18, 0x0F	; 15
     cb2:	82 2f       	mov	r24, r18
     cb4:	82 70       	andi	r24, 0x02	; 2
     cb6:	90 e0       	ldi	r25, 0x00	; 0
     cb8:	88 0f       	add	r24, r24
     cba:	99 1f       	adc	r25, r25
     cbc:	20 fb       	bst	r18, 0
     cbe:	ee 24       	eor	r14, r14
     cc0:	e0 f8       	bld	r14, 0
     cc2:	f1 2c       	mov	r15, r1
     cc4:	8e 0d       	add	r24, r14
     cc6:	9f 1d       	adc	r25, r15
     cc8:	42 2f       	mov	r20, r18
     cca:	44 70       	andi	r20, 0x04	; 4
     ccc:	50 e0       	ldi	r21, 0x00	; 0
     cce:	44 0f       	add	r20, r20
     cd0:	55 1f       	adc	r21, r21
     cd2:	44 0f       	add	r20, r20
     cd4:	55 1f       	adc	r21, r21
     cd6:	84 0f       	add	r24, r20
     cd8:	95 1f       	adc	r25, r21
     cda:	28 70       	andi	r18, 0x08	; 8
     cdc:	30 e0       	ldi	r19, 0x00	; 0
     cde:	22 0f       	add	r18, r18
     ce0:	33 1f       	adc	r19, r19
     ce2:	22 0f       	add	r18, r18
     ce4:	33 1f       	adc	r19, r19
     ce6:	22 0f       	add	r18, r18
     ce8:	33 1f       	adc	r19, r19
     cea:	82 0f       	add	r24, r18
     cec:	93 1f       	adc	r25, r19
     cee:	d8 2e       	mov	r13, r24
     cf0:	dd 0c       	add	r13, r13
     cf2:	d8 0e       	add	r13, r24
     cf4:	8d 2d       	mov	r24, r13
     cf6:	0e 94 6e 05 	call	0xadc	; 0xadc <_Z8TWIWriteh>
     cfa:	8d 2d       	mov	r24, r13
     cfc:	0e 94 6e 05 	call	0xadc	; 0xadc <_Z8TWIWriteh>
     d00:	0f 5f       	subi	r16, 0xFF	; 255
     d02:	1f 4f       	sbci	r17, 0xFF	; 255
     d04:	0c 17       	cp	r16, r28
     d06:	1d 07       	cpc	r17, r29
     d08:	81 f6       	brne	.-96     	; 0xcaa <_Z15oled_write_charc+0xe6>
     d0a:	0e 94 5f 05 	call	0xabe	; 0xabe <_Z7TWIStopv>
     d0e:	80 91 b5 05 	lds	r24, 0x05B5	; 0x8005b5 <_ZL6oled_x>
     d12:	8e 5f       	subi	r24, 0xFE	; 254
     d14:	80 93 b5 05 	sts	0x05B5, r24	; 0x8005b5 <_ZL6oled_x>
     d18:	80 91 b4 05 	lds	r24, 0x05B4	; 0x8005b4 <_ZL6oled_y>
     d1c:	81 50       	subi	r24, 0x01	; 1
     d1e:	80 93 b4 05 	sts	0x05B4, r24	; 0x8005b4 <_ZL6oled_y>
     d22:	2f c0       	rjmp	.+94     	; 0xd82 <_Z15oled_write_charc+0x1be>
     d24:	60 91 b4 05 	lds	r22, 0x05B4	; 0x8005b4 <_ZL6oled_y>
     d28:	80 91 b5 05 	lds	r24, 0x05B5	; 0x8005b5 <_ZL6oled_x>
     d2c:	0e 94 7c 05 	call	0xaf8	; 0xaf8 <_Z11oled_gotoxyhh>
     d30:	0e 94 50 05 	call	0xaa0	; 0xaa0 <_Z8TWIStartv>
     d34:	88 e7       	ldi	r24, 0x78	; 120
     d36:	0e 94 6e 05 	call	0xadc	; 0xadc <_Z8TWIWriteh>
     d3a:	80 e4       	ldi	r24, 0x40	; 64
     d3c:	0e 94 6e 05 	call	0xadc	; 0xadc <_Z8TWIWriteh>
     d40:	10 e0       	ldi	r17, 0x00	; 0
     d42:	e8 01       	movw	r28, r16
     d44:	cc 0f       	add	r28, r28
     d46:	dd 1f       	adc	r29, r29
     d48:	cc 0f       	add	r28, r28
     d4a:	dd 1f       	adc	r29, r29
     d4c:	cc 0f       	add	r28, r28
     d4e:	dd 1f       	adc	r29, r29
     d50:	c7 5b       	subi	r28, 0xB7	; 183
     d52:	dd 4f       	sbci	r29, 0xFD	; 253
     d54:	00 0f       	add	r16, r16
     d56:	11 1f       	adc	r17, r17
     d58:	00 0f       	add	r16, r16
     d5a:	11 1f       	adc	r17, r17
     d5c:	00 0f       	add	r16, r16
     d5e:	11 1f       	adc	r17, r17
     d60:	0f 5a       	subi	r16, 0xAF	; 175
     d62:	1d 4f       	sbci	r17, 0xFD	; 253
     d64:	fe 01       	movw	r30, r28
     d66:	84 91       	lpm	r24, Z
     d68:	0e 94 6e 05 	call	0xadc	; 0xadc <_Z8TWIWriteh>
     d6c:	21 96       	adiw	r28, 0x01	; 1
     d6e:	c0 17       	cp	r28, r16
     d70:	d1 07       	cpc	r29, r17
     d72:	c1 f7       	brne	.-16     	; 0xd64 <_Z15oled_write_charc+0x1a0>
     d74:	0e 94 5f 05 	call	0xabe	; 0xabe <_Z7TWIStopv>
     d78:	80 91 b5 05 	lds	r24, 0x05B5	; 0x8005b5 <_ZL6oled_x>
     d7c:	8f 5f       	subi	r24, 0xFF	; 255
     d7e:	80 93 b5 05 	sts	0x05B5, r24	; 0x8005b5 <_ZL6oled_x>
     d82:	df 91       	pop	r29
     d84:	cf 91       	pop	r28
     d86:	1f 91       	pop	r17
     d88:	0f 91       	pop	r16
     d8a:	ff 90       	pop	r15
     d8c:	ef 90       	pop	r14
     d8e:	df 90       	pop	r13
     d90:	cf 90       	pop	r12
     d92:	bf 90       	pop	r11
     d94:	af 90       	pop	r10
     d96:	9f 90       	pop	r9
     d98:	08 95       	ret

00000d9a <_Z14oled_write_strPc>:
     d9a:	cf 93       	push	r28
     d9c:	df 93       	push	r29
     d9e:	ec 01       	movw	r28, r24
     da0:	88 81       	ld	r24, Y
     da2:	88 23       	and	r24, r24
     da4:	31 f0       	breq	.+12     	; 0xdb2 <_Z14oled_write_strPc+0x18>
     da6:	21 96       	adiw	r28, 0x01	; 1
     da8:	0e 94 e2 05 	call	0xbc4	; 0xbc4 <_Z15oled_write_charc>
     dac:	89 91       	ld	r24, Y+
     dae:	81 11       	cpse	r24, r1
     db0:	fb cf       	rjmp	.-10     	; 0xda8 <_Z14oled_write_strPc+0xe>
     db2:	df 91       	pop	r29
     db4:	cf 91       	pop	r28
     db6:	08 95       	ret

00000db8 <_Z12oled_write_PPKcz>:
     db8:	2f 92       	push	r2
     dba:	3f 92       	push	r3
     dbc:	4f 92       	push	r4
     dbe:	5f 92       	push	r5
     dc0:	6f 92       	push	r6
     dc2:	7f 92       	push	r7
     dc4:	8f 92       	push	r8
     dc6:	9f 92       	push	r9
     dc8:	af 92       	push	r10
     dca:	bf 92       	push	r11
     dcc:	cf 92       	push	r12
     dce:	df 92       	push	r13
     dd0:	ef 92       	push	r14
     dd2:	ff 92       	push	r15
     dd4:	0f 93       	push	r16
     dd6:	1f 93       	push	r17
     dd8:	cf 93       	push	r28
     dda:	df 93       	push	r29
     ddc:	cd b7       	in	r28, 0x3d	; 61
     dde:	de b7       	in	r29, 0x3e	; 62
     de0:	64 97       	sbiw	r28, 0x14	; 20
     de2:	0f b6       	in	r0, 0x3f	; 63
     de4:	f8 94       	cli
     de6:	de bf       	out	0x3e, r29	; 62
     de8:	0f be       	out	0x3f, r0	; 63
     dea:	cd bf       	out	0x3d, r28	; 61
     dec:	fe 01       	movw	r30, r28
     dee:	b9 96       	adiw	r30, 0x29	; 41
     df0:	e1 90       	ld	r14, Z+
     df2:	f1 90       	ld	r15, Z+
     df4:	5f 01       	movw	r10, r30
     df6:	81 2c       	mov	r8, r1
     df8:	21 2c       	mov	r2, r1
     dfa:	61 2c       	mov	r6, r1
     dfc:	51 2c       	mov	r5, r1
     dfe:	71 2c       	mov	r7, r1
     e00:	0f 2e       	mov	r0, r31
     e02:	f0 e3       	ldi	r31, 0x30	; 48
     e04:	9f 2e       	mov	r9, r31
     e06:	f0 2d       	mov	r31, r0
     e08:	68 94       	set
     e0a:	44 24       	eor	r4, r4
     e0c:	44 f8       	bld	r4, 4
     e0e:	68 94       	set
     e10:	33 24       	eor	r3, r3
     e12:	33 f8       	bld	r3, 3
     e14:	01 c0       	rjmp	.+2      	; 0xe18 <_Z12oled_write_PPKcz+0x60>
     e16:	76 01       	movw	r14, r12
     e18:	87 01       	movw	r16, r14
     e1a:	0f 5f       	subi	r16, 0xFF	; 255
     e1c:	1f 4f       	sbci	r17, 0xFF	; 255
     e1e:	f7 01       	movw	r30, r14
     e20:	84 91       	lpm	r24, Z
     e22:	88 23       	and	r24, r24
     e24:	09 f4       	brne	.+2      	; 0xe28 <_Z12oled_write_PPKcz+0x70>
     e26:	cc c0       	rjmp	.+408    	; 0xfc0 <_Z12oled_write_PPKcz+0x208>
     e28:	85 32       	cpi	r24, 0x25	; 37
     e2a:	09 f0       	breq	.+2      	; 0xe2e <_Z12oled_write_PPKcz+0x76>
     e2c:	9c c0       	rjmp	.+312    	; 0xf66 <_Z12oled_write_PPKcz+0x1ae>
     e2e:	67 01       	movw	r12, r14
     e30:	f2 e0       	ldi	r31, 0x02	; 2
     e32:	cf 0e       	add	r12, r31
     e34:	d1 1c       	adc	r13, r1
     e36:	f8 01       	movw	r30, r16
     e38:	04 91       	lpm	r16, Z
     e3a:	80 2f       	mov	r24, r16
     e3c:	90 e0       	ldi	r25, 0x00	; 0
     e3e:	c0 97       	sbiw	r24, 0x30	; 48
     e40:	0a 97       	sbiw	r24, 0x0a	; 10
     e42:	08 f0       	brcs	.+2      	; 0xe46 <_Z12oled_write_PPKcz+0x8e>
     e44:	9e c0       	rjmp	.+316    	; 0xf82 <_Z12oled_write_PPKcz+0x1ca>
     e46:	0b 87       	std	Y+11, r16	; 0x0b
     e48:	7c 86       	std	Y+12, r7	; 0x0c
     e4a:	ce 01       	movw	r24, r28
     e4c:	0b 96       	adiw	r24, 0x0b	; 11
     e4e:	0e 94 e0 15 	call	0x2bc0	; 0x2bc0 <atoi>
     e52:	88 2e       	mov	r8, r24
     e54:	f3 e0       	ldi	r31, 0x03	; 3
     e56:	ef 0e       	add	r14, r31
     e58:	f1 1c       	adc	r15, r1
     e5a:	f6 01       	movw	r30, r12
     e5c:	84 91       	lpm	r24, Z
     e5e:	89 36       	cpi	r24, 0x69	; 105
     e60:	09 f4       	brne	.+2      	; 0xe64 <_Z12oled_write_PPKcz+0xac>
     e62:	a2 c0       	rjmp	.+324    	; 0xfa8 <_Z12oled_write_PPKcz+0x1f0>
     e64:	28 f4       	brcc	.+10     	; 0xe70 <_Z12oled_write_PPKcz+0xb8>
     e66:	82 36       	cpi	r24, 0x62	; 98
     e68:	99 f1       	breq	.+102    	; 0xed0 <_Z12oled_write_PPKcz+0x118>
     e6a:	83 36       	cpi	r24, 0x63	; 99
     e6c:	01 f1       	breq	.+64     	; 0xeae <_Z12oled_write_PPKcz+0xf6>
     e6e:	d4 cf       	rjmp	.-88     	; 0xe18 <_Z12oled_write_PPKcz+0x60>
     e70:	83 37       	cpi	r24, 0x73	; 115
     e72:	31 f0       	breq	.+12     	; 0xe80 <_Z12oled_write_PPKcz+0xc8>
     e74:	88 37       	cpi	r24, 0x78	; 120
     e76:	41 f1       	breq	.+80     	; 0xec8 <_Z12oled_write_PPKcz+0x110>
     e78:	8f 36       	cpi	r24, 0x6F	; 111
     e7a:	71 f6       	brne	.-100    	; 0xe18 <_Z12oled_write_PPKcz+0x60>
     e7c:	21 c0       	rjmp	.+66     	; 0xec0 <_Z12oled_write_PPKcz+0x108>
     e7e:	76 01       	movw	r14, r12
     e80:	f5 01       	movw	r30, r10
     e82:	01 90       	ld	r0, Z+
     e84:	f0 81       	ld	r31, Z
     e86:	e0 2d       	mov	r30, r0
     e88:	22 e0       	ldi	r18, 0x02	; 2
     e8a:	a2 0e       	add	r10, r18
     e8c:	b1 1c       	adc	r11, r1
     e8e:	80 81       	ld	r24, Z
     e90:	88 23       	and	r24, r24
     e92:	09 f4       	brne	.+2      	; 0xe96 <_Z12oled_write_PPKcz+0xde>
     e94:	c1 cf       	rjmp	.-126    	; 0xe18 <_Z12oled_write_PPKcz+0x60>
     e96:	8f 01       	movw	r16, r30
     e98:	0f 5f       	subi	r16, 0xFF	; 255
     e9a:	1f 4f       	sbci	r17, 0xFF	; 255
     e9c:	0e 94 e2 05 	call	0xbc4	; 0xbc4 <_Z15oled_write_charc>
     ea0:	f8 01       	movw	r30, r16
     ea2:	81 91       	ld	r24, Z+
     ea4:	8f 01       	movw	r16, r30
     ea6:	81 11       	cpse	r24, r1
     ea8:	f9 cf       	rjmp	.-14     	; 0xe9c <_Z12oled_write_PPKcz+0xe4>
     eaa:	b6 cf       	rjmp	.-148    	; 0xe18 <_Z12oled_write_PPKcz+0x60>
     eac:	76 01       	movw	r14, r12
     eae:	85 01       	movw	r16, r10
     eb0:	0e 5f       	subi	r16, 0xFE	; 254
     eb2:	1f 4f       	sbci	r17, 0xFF	; 255
     eb4:	f5 01       	movw	r30, r10
     eb6:	80 81       	ld	r24, Z
     eb8:	0e 94 e2 05 	call	0xbc4	; 0xbc4 <_Z15oled_write_charc>
     ebc:	58 01       	movw	r10, r16
     ebe:	ac cf       	rjmp	.-168    	; 0xe18 <_Z12oled_write_PPKcz+0x60>
     ec0:	67 01       	movw	r12, r14
     ec2:	76 01       	movw	r14, r12
     ec4:	43 2d       	mov	r20, r3
     ec6:	74 c0       	rjmp	.+232    	; 0xfb0 <_Z12oled_write_PPKcz+0x1f8>
     ec8:	67 01       	movw	r12, r14
     eca:	76 01       	movw	r14, r12
     ecc:	44 2d       	mov	r20, r4
     ece:	70 c0       	rjmp	.+224    	; 0xfb0 <_Z12oled_write_PPKcz+0x1f8>
     ed0:	f5 01       	movw	r30, r10
     ed2:	80 81       	ld	r24, Z
     ed4:	91 81       	ldd	r25, Z+1	; 0x01
     ed6:	f2 e0       	ldi	r31, 0x02	; 2
     ed8:	af 0e       	add	r10, r31
     eda:	b1 1c       	adc	r11, r1
     edc:	42 e0       	ldi	r20, 0x02	; 2
     ede:	52 2d       	mov	r21, r2
     ee0:	be 01       	movw	r22, r28
     ee2:	6f 5f       	subi	r22, 0xFF	; 255
     ee4:	7f 4f       	sbci	r23, 0xFF	; 255
     ee6:	0e 94 94 17 	call	0x2f28	; 0x2f28 <itoa>
     eea:	fe 01       	movw	r30, r28
     eec:	31 96       	adiw	r30, 0x01	; 1
     eee:	86 2d       	mov	r24, r6
     ef0:	95 2d       	mov	r25, r5
     ef2:	01 c0       	rjmp	.+2      	; 0xef6 <_Z12oled_write_PPKcz+0x13e>
     ef4:	ca 01       	movw	r24, r20
     ef6:	ac 01       	movw	r20, r24
     ef8:	4f 5f       	subi	r20, 0xFF	; 255
     efa:	5f 4f       	sbci	r21, 0xFF	; 255
     efc:	21 91       	ld	r18, Z+
     efe:	21 11       	cpse	r18, r1
     f00:	f9 cf       	rjmp	.-14     	; 0xef4 <_Z12oled_write_PPKcz+0x13c>
     f02:	28 2d       	mov	r18, r8
     f04:	30 e0       	ldi	r19, 0x00	; 0
     f06:	82 17       	cp	r24, r18
     f08:	93 07       	cpc	r25, r19
     f0a:	3c f5       	brge	.+78     	; 0xf5a <_Z12oled_write_PPKcz+0x1a2>
     f0c:	88 1a       	sub	r8, r24
     f0e:	28 2d       	mov	r18, r8
     f10:	30 e0       	ldi	r19, 0x00	; 0
     f12:	12 16       	cp	r1, r18
     f14:	13 06       	cpc	r1, r19
     f16:	54 f4       	brge	.+20     	; 0xf2c <_Z12oled_write_PPKcz+0x174>
     f18:	fe 01       	movw	r30, r28
     f1a:	3b 96       	adiw	r30, 0x0b	; 11
     f1c:	cf 01       	movw	r24, r30
     f1e:	88 0d       	add	r24, r8
     f20:	91 1d       	adc	r25, r1
     f22:	91 92       	st	Z+, r9
     f24:	8e 17       	cp	r24, r30
     f26:	9f 07       	cpc	r25, r31
     f28:	e1 f7       	brne	.-8      	; 0xf22 <_Z12oled_write_PPKcz+0x16a>
     f2a:	02 c0       	rjmp	.+4      	; 0xf30 <_Z12oled_write_PPKcz+0x178>
     f2c:	26 2d       	mov	r18, r6
     f2e:	35 2d       	mov	r19, r5
     f30:	eb e0       	ldi	r30, 0x0B	; 11
     f32:	f0 e0       	ldi	r31, 0x00	; 0
     f34:	ec 0f       	add	r30, r28
     f36:	fd 1f       	adc	r31, r29
     f38:	e2 0f       	add	r30, r18
     f3a:	f3 1f       	adc	r31, r19
     f3c:	10 82       	st	Z, r1
     f3e:	be 01       	movw	r22, r28
     f40:	6f 5f       	subi	r22, 0xFF	; 255
     f42:	7f 4f       	sbci	r23, 0xFF	; 255
     f44:	ce 01       	movw	r24, r28
     f46:	0b 96       	adiw	r24, 0x0b	; 11
     f48:	0e 94 27 17 	call	0x2e4e	; 0x2e4e <strcat>
     f4c:	be 01       	movw	r22, r28
     f4e:	65 5f       	subi	r22, 0xF5	; 245
     f50:	7f 4f       	sbci	r23, 0xFF	; 255
     f52:	ce 01       	movw	r24, r28
     f54:	01 96       	adiw	r24, 0x01	; 1
     f56:	0e 94 32 17 	call	0x2e64	; 0x2e64 <strcpy>
     f5a:	ce 01       	movw	r24, r28
     f5c:	01 96       	adiw	r24, 0x01	; 1
     f5e:	0e 94 cd 06 	call	0xd9a	; 0xd9a <_Z14oled_write_strPc>
     f62:	87 2c       	mov	r8, r7
     f64:	59 cf       	rjmp	.-334    	; 0xe18 <_Z12oled_write_PPKcz+0x60>
     f66:	0e 94 e2 05 	call	0xbc4	; 0xbc4 <_Z15oled_write_charc>
     f6a:	78 01       	movw	r14, r16
     f6c:	55 cf       	rjmp	.-342    	; 0xe18 <_Z12oled_write_PPKcz+0x60>
     f6e:	f5 01       	movw	r30, r10
     f70:	80 81       	ld	r24, Z
     f72:	91 81       	ldd	r25, Z+1	; 0x01
     f74:	22 e0       	ldi	r18, 0x02	; 2
     f76:	a2 0e       	add	r10, r18
     f78:	b1 1c       	adc	r11, r1
     f7a:	76 01       	movw	r14, r12
     f7c:	42 e0       	ldi	r20, 0x02	; 2
     f7e:	52 2d       	mov	r21, r2
     f80:	af cf       	rjmp	.-162    	; 0xee0 <_Z12oled_write_PPKcz+0x128>
     f82:	09 36       	cpi	r16, 0x69	; 105
     f84:	99 f0       	breq	.+38     	; 0xfac <_Z12oled_write_PPKcz+0x1f4>
     f86:	30 f4       	brcc	.+12     	; 0xf94 <_Z12oled_write_PPKcz+0x1dc>
     f88:	02 36       	cpi	r16, 0x62	; 98
     f8a:	89 f3       	breq	.-30     	; 0xf6e <_Z12oled_write_PPKcz+0x1b6>
     f8c:	03 36       	cpi	r16, 0x63	; 99
     f8e:	09 f4       	brne	.+2      	; 0xf92 <_Z12oled_write_PPKcz+0x1da>
     f90:	8d cf       	rjmp	.-230    	; 0xeac <_Z12oled_write_PPKcz+0xf4>
     f92:	41 cf       	rjmp	.-382    	; 0xe16 <_Z12oled_write_PPKcz+0x5e>
     f94:	03 37       	cpi	r16, 0x73	; 115
     f96:	09 f4       	brne	.+2      	; 0xf9a <_Z12oled_write_PPKcz+0x1e2>
     f98:	72 cf       	rjmp	.-284    	; 0xe7e <_Z12oled_write_PPKcz+0xc6>
     f9a:	08 37       	cpi	r16, 0x78	; 120
     f9c:	09 f4       	brne	.+2      	; 0xfa0 <_Z12oled_write_PPKcz+0x1e8>
     f9e:	95 cf       	rjmp	.-214    	; 0xeca <_Z12oled_write_PPKcz+0x112>
     fa0:	0f 36       	cpi	r16, 0x6F	; 111
     fa2:	09 f0       	breq	.+2      	; 0xfa6 <_Z12oled_write_PPKcz+0x1ee>
     fa4:	38 cf       	rjmp	.-400    	; 0xe16 <_Z12oled_write_PPKcz+0x5e>
     fa6:	8d cf       	rjmp	.-230    	; 0xec2 <_Z12oled_write_PPKcz+0x10a>
     fa8:	4a e0       	ldi	r20, 0x0A	; 10
     faa:	02 c0       	rjmp	.+4      	; 0xfb0 <_Z12oled_write_PPKcz+0x1f8>
     fac:	76 01       	movw	r14, r12
     fae:	4a e0       	ldi	r20, 0x0A	; 10
     fb0:	50 e0       	ldi	r21, 0x00	; 0
     fb2:	f5 01       	movw	r30, r10
     fb4:	80 81       	ld	r24, Z
     fb6:	91 81       	ldd	r25, Z+1	; 0x01
     fb8:	e2 e0       	ldi	r30, 0x02	; 2
     fba:	ae 0e       	add	r10, r30
     fbc:	b1 1c       	adc	r11, r1
     fbe:	90 cf       	rjmp	.-224    	; 0xee0 <_Z12oled_write_PPKcz+0x128>
     fc0:	64 96       	adiw	r28, 0x14	; 20
     fc2:	0f b6       	in	r0, 0x3f	; 63
     fc4:	f8 94       	cli
     fc6:	de bf       	out	0x3e, r29	; 62
     fc8:	0f be       	out	0x3f, r0	; 63
     fca:	cd bf       	out	0x3d, r28	; 61
     fcc:	df 91       	pop	r29
     fce:	cf 91       	pop	r28
     fd0:	1f 91       	pop	r17
     fd2:	0f 91       	pop	r16
     fd4:	ff 90       	pop	r15
     fd6:	ef 90       	pop	r14
     fd8:	df 90       	pop	r13
     fda:	cf 90       	pop	r12
     fdc:	bf 90       	pop	r11
     fde:	af 90       	pop	r10
     fe0:	9f 90       	pop	r9
     fe2:	8f 90       	pop	r8
     fe4:	7f 90       	pop	r7
     fe6:	6f 90       	pop	r6
     fe8:	5f 90       	pop	r5
     fea:	4f 90       	pop	r4
     fec:	3f 90       	pop	r3
     fee:	2f 90       	pop	r2
     ff0:	08 95       	ret

00000ff2 <_Z10USART_Initj>:
     ff2:	9c 01       	movw	r18, r24
     ff4:	40 e0       	ldi	r20, 0x00	; 0
     ff6:	50 e0       	ldi	r21, 0x00	; 0
     ff8:	60 e2       	ldi	r22, 0x20	; 32
     ffa:	71 ea       	ldi	r23, 0xA1	; 161
     ffc:	87 e0       	ldi	r24, 0x07	; 7
     ffe:	90 e0       	ldi	r25, 0x00	; 0
    1000:	0e 94 78 15 	call	0x2af0	; 0x2af0 <__udivmodsi4>
    1004:	21 50       	subi	r18, 0x01	; 1
    1006:	31 09       	sbc	r19, r1
    1008:	30 93 c5 00 	sts	0x00C5, r19	; 0x8000c5 <__TEXT_REGION_LENGTH__+0x7f80c5>
    100c:	20 93 c4 00 	sts	0x00C4, r18	; 0x8000c4 <__TEXT_REGION_LENGTH__+0x7f80c4>
    1010:	88 e9       	ldi	r24, 0x98	; 152
    1012:	80 93 c1 00 	sts	0x00C1, r24	; 0x8000c1 <__TEXT_REGION_LENGTH__+0x7f80c1>
    1016:	86 e0       	ldi	r24, 0x06	; 6
    1018:	80 93 c2 00 	sts	0x00C2, r24	; 0x8000c2 <__TEXT_REGION_LENGTH__+0x7f80c2>
    101c:	78 94       	sei
    101e:	08 95       	ret

00001020 <_Z14USART_Transmith>:
    1020:	e0 ec       	ldi	r30, 0xC0	; 192
    1022:	f0 e0       	ldi	r31, 0x00	; 0
    1024:	90 81       	ld	r25, Z
    1026:	95 ff       	sbrs	r25, 5
    1028:	fd cf       	rjmp	.-6      	; 0x1024 <_Z14USART_Transmith+0x4>
    102a:	80 93 c6 00 	sts	0x00C6, r24	; 0x8000c6 <__TEXT_REGION_LENGTH__+0x7f80c6>
    102e:	08 95       	ret

00001030 <_Z14USART_TxStringPc>:
    1030:	cf 93       	push	r28
    1032:	df 93       	push	r29
    1034:	ec 01       	movw	r28, r24
    1036:	88 81       	ld	r24, Y
    1038:	88 23       	and	r24, r24
    103a:	31 f0       	breq	.+12     	; 0x1048 <_Z14USART_TxStringPc+0x18>
    103c:	21 96       	adiw	r28, 0x01	; 1
    103e:	0e 94 10 08 	call	0x1020	; 0x1020 <_Z14USART_Transmith>
    1042:	89 91       	ld	r24, Y+
    1044:	81 11       	cpse	r24, r1
    1046:	fb cf       	rjmp	.-10     	; 0x103e <_Z14USART_TxStringPc+0xe>
    1048:	df 91       	pop	r29
    104a:	cf 91       	pop	r28
    104c:	08 95       	ret

0000104e <_Z16USART_TxStringlnPc>:
    104e:	cf 93       	push	r28
    1050:	df 93       	push	r29
    1052:	ec 01       	movw	r28, r24
    1054:	88 81       	ld	r24, Y
    1056:	88 23       	and	r24, r24
    1058:	31 f0       	breq	.+12     	; 0x1066 <_Z16USART_TxStringlnPc+0x18>
    105a:	21 96       	adiw	r28, 0x01	; 1
    105c:	0e 94 10 08 	call	0x1020	; 0x1020 <_Z14USART_Transmith>
    1060:	89 91       	ld	r24, Y+
    1062:	81 11       	cpse	r24, r1
    1064:	fb cf       	rjmp	.-10     	; 0x105c <_Z16USART_TxStringlnPc+0xe>
    1066:	8d e0       	ldi	r24, 0x0D	; 13
    1068:	0e 94 10 08 	call	0x1020	; 0x1020 <_Z14USART_Transmith>
    106c:	8a e0       	ldi	r24, 0x0A	; 10
    106e:	0e 94 10 08 	call	0x1020	; 0x1020 <_Z14USART_Transmith>
    1072:	df 91       	pop	r29
    1074:	cf 91       	pop	r28
    1076:	08 95       	ret

00001078 <__vector_18>:
    1078:	1f 92       	push	r1
    107a:	0f 92       	push	r0
    107c:	0f b6       	in	r0, 0x3f	; 63
    107e:	0f 92       	push	r0
    1080:	11 24       	eor	r1, r1
    1082:	2f 93       	push	r18
    1084:	3f 93       	push	r19
    1086:	4f 93       	push	r20
    1088:	8f 93       	push	r24
    108a:	9f 93       	push	r25
    108c:	af 93       	push	r26
    108e:	bf 93       	push	r27
    1090:	ef 93       	push	r30
    1092:	ff 93       	push	r31
    1094:	40 91 c6 00 	lds	r20, 0x00C6	; 0x8000c6 <__TEXT_REGION_LENGTH__+0x7f80c6>
    1098:	e3 e6       	ldi	r30, 0x63	; 99
    109a:	f5 e0       	ldi	r31, 0x05	; 5
    109c:	df 01       	movw	r26, r30
    109e:	80 e0       	ldi	r24, 0x00	; 0
    10a0:	9d 91       	ld	r25, X+
    10a2:	99 23       	and	r25, r25
    10a4:	a1 f0       	breq	.+40     	; 0x10ce <__vector_18+0x56>
    10a6:	8f 5f       	subi	r24, 0xFF	; 255
    10a8:	80 35       	cpi	r24, 0x50	; 80
    10aa:	d1 f7       	brne	.-12     	; 0x10a0 <__vector_18+0x28>
    10ac:	06 c0       	rjmp	.+12     	; 0x10ba <__vector_18+0x42>
    10ae:	e8 2f       	mov	r30, r24
    10b0:	f0 e0       	ldi	r31, 0x00	; 0
    10b2:	ed 59       	subi	r30, 0x9D	; 157
    10b4:	fa 4f       	sbci	r31, 0xFA	; 250
    10b6:	40 83       	st	Z, r20
    10b8:	0d c0       	rjmp	.+26     	; 0x10d4 <__vector_18+0x5c>
    10ba:	22 eb       	ldi	r18, 0xB2	; 178
    10bc:	35 e0       	ldi	r19, 0x05	; 5
    10be:	81 81       	ldd	r24, Z+1	; 0x01
    10c0:	81 93       	st	Z+, r24
    10c2:	e2 17       	cp	r30, r18
    10c4:	f3 07       	cpc	r31, r19
    10c6:	d9 f7       	brne	.-10     	; 0x10be <__vector_18+0x46>
    10c8:	40 93 b2 05 	sts	0x05B2, r20	; 0x8005b2 <rxvalue+0x4f>
    10cc:	03 c0       	rjmp	.+6      	; 0x10d4 <__vector_18+0x5c>
    10ce:	80 35       	cpi	r24, 0x50	; 80
    10d0:	a0 f7       	brcc	.-24     	; 0x10ba <__vector_18+0x42>
    10d2:	ed cf       	rjmp	.-38     	; 0x10ae <__vector_18+0x36>
    10d4:	ff 91       	pop	r31
    10d6:	ef 91       	pop	r30
    10d8:	bf 91       	pop	r27
    10da:	af 91       	pop	r26
    10dc:	9f 91       	pop	r25
    10de:	8f 91       	pop	r24
    10e0:	4f 91       	pop	r20
    10e2:	3f 91       	pop	r19
    10e4:	2f 91       	pop	r18
    10e6:	0f 90       	pop	r0
    10e8:	0f be       	out	0x3f, r0	; 63
    10ea:	0f 90       	pop	r0
    10ec:	1f 90       	pop	r1
    10ee:	18 95       	reti

000010f0 <_Z16USART_ReciveWaitPcjb>:
    10f0:	df 92       	push	r13
    10f2:	ef 92       	push	r14
    10f4:	ff 92       	push	r15
    10f6:	0f 93       	push	r16
    10f8:	1f 93       	push	r17
    10fa:	cf 93       	push	r28
    10fc:	df 93       	push	r29
    10fe:	00 97       	sbiw	r24, 0x00	; 0
    1100:	f1 f1       	breq	.+124    	; 0x117e <_Z16USART_ReciveWaitPcjb+0x8e>
    1102:	7c 01       	movw	r14, r24
    1104:	2f ef       	ldi	r18, 0xFF	; 255
    1106:	80 e7       	ldi	r24, 0x70	; 112
    1108:	92 e0       	ldi	r25, 0x02	; 2
    110a:	21 50       	subi	r18, 0x01	; 1
    110c:	80 40       	sbci	r24, 0x00	; 0
    110e:	90 40       	sbci	r25, 0x00	; 0
    1110:	e1 f7       	brne	.-8      	; 0x110a <_Z16USART_ReciveWaitPcjb+0x1a>
    1112:	00 c0       	rjmp	.+0      	; 0x1114 <_Z16USART_ReciveWaitPcjb+0x24>
    1114:	00 00       	nop
    1116:	9b 01       	movw	r18, r22
    1118:	36 95       	lsr	r19
    111a:	27 95       	ror	r18
    111c:	36 95       	lsr	r19
    111e:	27 95       	ror	r18
    1120:	ab e7       	ldi	r26, 0x7B	; 123
    1122:	b4 e1       	ldi	r27, 0x14	; 20
    1124:	0e 94 9a 15 	call	0x2b34	; 0x2b34 <__umulhisi3>
    1128:	8c 01       	movw	r16, r24
    112a:	16 95       	lsr	r17
    112c:	07 95       	ror	r16
    112e:	c0 e0       	ldi	r28, 0x00	; 0
    1130:	d1 e0       	ldi	r29, 0x01	; 1
    1132:	d1 2c       	mov	r13, r1
    1134:	02 c0       	rjmp	.+4      	; 0x113a <_Z16USART_ReciveWaitPcjb+0x4a>
    1136:	45 2b       	or	r20, r21
    1138:	21 f5       	brne	.+72     	; 0x1182 <_Z16USART_ReciveWaitPcjb+0x92>
    113a:	b7 01       	movw	r22, r14
    113c:	83 e6       	ldi	r24, 0x63	; 99
    113e:	95 e0       	ldi	r25, 0x05	; 5
    1140:	0e 94 53 17 	call	0x2ea6	; 0x2ea6 <strstr>
    1144:	ac 01       	movw	r20, r24
    1146:	2f ef       	ldi	r18, 0xFF	; 255
    1148:	80 e7       	ldi	r24, 0x70	; 112
    114a:	92 e0       	ldi	r25, 0x02	; 2
    114c:	21 50       	subi	r18, 0x01	; 1
    114e:	80 40       	sbci	r24, 0x00	; 0
    1150:	90 40       	sbci	r25, 0x00	; 0
    1152:	e1 f7       	brne	.-8      	; 0x114c <_Z16USART_ReciveWaitPcjb+0x5c>
    1154:	00 c0       	rjmp	.+0      	; 0x1156 <_Z16USART_ReciveWaitPcjb+0x66>
    1156:	00 00       	nop
    1158:	cf 5f       	subi	r28, 0xFF	; 255
    115a:	2c 2f       	mov	r18, r28
    115c:	30 e0       	ldi	r19, 0x00	; 0
    115e:	9d 2f       	mov	r25, r29
    1160:	02 17       	cp	r16, r18
    1162:	13 07       	cpc	r17, r19
    1164:	08 f0       	brcs	.+2      	; 0x1168 <_Z16USART_ReciveWaitPcjb+0x78>
    1166:	9d 2d       	mov	r25, r13
    1168:	99 23       	and	r25, r25
    116a:	29 f3       	breq	.-54     	; 0x1136 <_Z16USART_ReciveWaitPcjb+0x46>
    116c:	8d 2f       	mov	r24, r29
    116e:	01 15       	cp	r16, r1
    1170:	11 05       	cpc	r17, r1
    1172:	09 f4       	brne	.+2      	; 0x1176 <_Z16USART_ReciveWaitPcjb+0x86>
    1174:	8d 2d       	mov	r24, r13
    1176:	88 23       	and	r24, r24
    1178:	f1 f2       	breq	.-68     	; 0x1136 <_Z16USART_ReciveWaitPcjb+0x46>
    117a:	80 e0       	ldi	r24, 0x00	; 0
    117c:	03 c0       	rjmp	.+6      	; 0x1184 <_Z16USART_ReciveWaitPcjb+0x94>
    117e:	80 e0       	ldi	r24, 0x00	; 0
    1180:	01 c0       	rjmp	.+2      	; 0x1184 <_Z16USART_ReciveWaitPcjb+0x94>
    1182:	81 e0       	ldi	r24, 0x01	; 1
    1184:	df 91       	pop	r29
    1186:	cf 91       	pop	r28
    1188:	1f 91       	pop	r17
    118a:	0f 91       	pop	r16
    118c:	ff 90       	pop	r15
    118e:	ef 90       	pop	r14
    1190:	df 90       	pop	r13
    1192:	08 95       	ret

00001194 <_Z13USART_ClearRXv>:
    1194:	e3 e6       	ldi	r30, 0x63	; 99
    1196:	f5 e0       	ldi	r31, 0x05	; 5
    1198:	83 eb       	ldi	r24, 0xB3	; 179
    119a:	95 e0       	ldi	r25, 0x05	; 5
    119c:	11 92       	st	Z+, r1
    119e:	e8 17       	cp	r30, r24
    11a0:	f9 07       	cpc	r31, r25
    11a2:	e1 f7       	brne	.-8      	; 0x119c <_Z13USART_ClearRXv+0x8>
    11a4:	08 95       	ret

000011a6 <_Z11DTH_PinReadv>:
    11a6:	86 b1       	in	r24, 0x06	; 6
    11a8:	86 95       	lsr	r24
    11aa:	81 70       	andi	r24, 0x01	; 1
    11ac:	08 95       	ret

000011ae <_Z7InitADCv>:
    11ae:	ec e7       	ldi	r30, 0x7C	; 124
    11b0:	f0 e0       	ldi	r31, 0x00	; 0
    11b2:	80 81       	ld	r24, Z
    11b4:	80 64       	ori	r24, 0x40	; 64
    11b6:	80 83       	st	Z, r24
    11b8:	ea e7       	ldi	r30, 0x7A	; 122
    11ba:	f0 e0       	ldi	r31, 0x00	; 0
    11bc:	80 81       	ld	r24, Z
    11be:	87 68       	ori	r24, 0x87	; 135
    11c0:	80 83       	st	Z, r24
    11c2:	08 95       	ret

000011c4 <_Z7ReadADCh>:
    11c4:	ec e7       	ldi	r30, 0x7C	; 124
    11c6:	f0 e0       	ldi	r31, 0x00	; 0
    11c8:	90 81       	ld	r25, Z
    11ca:	90 7f       	andi	r25, 0xF0	; 240
    11cc:	8f 70       	andi	r24, 0x0F	; 15
    11ce:	89 2b       	or	r24, r25
    11d0:	80 83       	st	Z, r24
    11d2:	ea e7       	ldi	r30, 0x7A	; 122
    11d4:	f0 e0       	ldi	r31, 0x00	; 0
    11d6:	80 81       	ld	r24, Z
    11d8:	80 64       	ori	r24, 0x40	; 64
    11da:	80 83       	st	Z, r24
    11dc:	80 81       	ld	r24, Z
    11de:	86 fd       	sbrc	r24, 6
    11e0:	fd cf       	rjmp	.-6      	; 0x11dc <_Z7ReadADCh+0x18>
    11e2:	80 91 78 00 	lds	r24, 0x0078	; 0x800078 <__TEXT_REGION_LENGTH__+0x7f8078>
    11e6:	90 91 79 00 	lds	r25, 0x0079	; 0x800079 <__TEXT_REGION_LENGTH__+0x7f8079>
    11ea:	08 95       	ret

000011ec <_Z8DTH_Initv>:
    11ec:	39 9a       	sbi	0x07, 1	; 7
    11ee:	41 98       	cbi	0x08, 1	; 8
    11f0:	8f e9       	ldi	r24, 0x9F	; 159
    11f2:	9c e8       	ldi	r25, 0x8C	; 140
    11f4:	01 97       	sbiw	r24, 0x01	; 1
    11f6:	f1 f7       	brne	.-4      	; 0x11f4 <_Z8DTH_Initv+0x8>
    11f8:	00 c0       	rjmp	.+0      	; 0x11fa <_Z8DTH_Initv+0xe>
    11fa:	00 00       	nop
    11fc:	41 9a       	sbi	0x08, 1	; 8
    11fe:	90 e5       	ldi	r25, 0x50	; 80
    1200:	9a 95       	dec	r25
    1202:	f1 f7       	brne	.-4      	; 0x1200 <_Z8DTH_Initv+0x14>
    1204:	39 98       	cbi	0x07, 1	; 7
    1206:	8a e6       	ldi	r24, 0x6A	; 106
    1208:	8a 95       	dec	r24
    120a:	f1 f7       	brne	.-4      	; 0x1208 <_Z8DTH_Initv+0x1c>
    120c:	00 c0       	rjmp	.+0      	; 0x120e <_Z8DTH_Initv+0x22>
    120e:	0e 94 d3 08 	call	0x11a6	; 0x11a6 <_Z11DTH_PinReadv>
    1212:	81 11       	cpse	r24, r1
    1214:	0b c0       	rjmp	.+22     	; 0x122c <_Z8DTH_Initv+0x40>
    1216:	95 ed       	ldi	r25, 0xD5	; 213
    1218:	9a 95       	dec	r25
    121a:	f1 f7       	brne	.-4      	; 0x1218 <_Z8DTH_Initv+0x2c>
    121c:	00 00       	nop
    121e:	0e 94 d3 08 	call	0x11a6	; 0x11a6 <_Z11DTH_PinReadv>
    1222:	95 e8       	ldi	r25, 0x85	; 133
    1224:	9a 95       	dec	r25
    1226:	f1 f7       	brne	.-4      	; 0x1224 <_Z8DTH_Initv+0x38>
    1228:	00 00       	nop
    122a:	08 95       	ret
    122c:	80 e0       	ldi	r24, 0x00	; 0
    122e:	08 95       	ret

00001230 <_Z13DTR_ReadValuev>:
    1230:	4f 92       	push	r4
    1232:	5f 92       	push	r5
    1234:	6f 92       	push	r6
    1236:	7f 92       	push	r7
    1238:	8f 92       	push	r8
    123a:	9f 92       	push	r9
    123c:	af 92       	push	r10
    123e:	bf 92       	push	r11
    1240:	cf 92       	push	r12
    1242:	df 92       	push	r13
    1244:	ef 92       	push	r14
    1246:	ff 92       	push	r15
    1248:	0f 93       	push	r16
    124a:	1f 93       	push	r17
    124c:	cf 93       	push	r28
    124e:	df 93       	push	r29
    1250:	cd b7       	in	r28, 0x3d	; 61
    1252:	de b7       	in	r29, 0x3e	; 62
    1254:	29 97       	sbiw	r28, 0x09	; 9
    1256:	0f b6       	in	r0, 0x3f	; 63
    1258:	f8 94       	cli
    125a:	de bf       	out	0x3e, r29	; 62
    125c:	0f be       	out	0x3f, r0	; 63
    125e:	cd bf       	out	0x3d, r28	; 61
    1260:	40 90 2c 04 	lds	r4, 0x042C	; 0x80042c <ReadHumidity>
    1264:	50 90 2d 04 	lds	r5, 0x042D	; 0x80042d <ReadHumidity+0x1>
    1268:	60 90 2e 04 	lds	r6, 0x042E	; 0x80042e <ReadHumidity+0x2>
    126c:	70 90 2f 04 	lds	r7, 0x042F	; 0x80042f <ReadHumidity+0x3>
    1270:	80 91 28 04 	lds	r24, 0x0428	; 0x800428 <ReadTemp>
    1274:	90 91 29 04 	lds	r25, 0x0429	; 0x800429 <ReadTemp+0x1>
    1278:	a0 91 2a 04 	lds	r26, 0x042A	; 0x80042a <ReadTemp+0x2>
    127c:	b0 91 2b 04 	lds	r27, 0x042B	; 0x80042b <ReadTemp+0x3>
    1280:	8e 83       	std	Y+6, r24	; 0x06
    1282:	9f 83       	std	Y+7, r25	; 0x07
    1284:	a8 87       	std	Y+8, r26	; 0x08
    1286:	b9 87       	std	Y+9, r27	; 0x09
    1288:	0e 94 f6 08 	call	0x11ec	; 0x11ec <_Z8DTH_Initv>
    128c:	de 01       	movw	r26, r28
    128e:	11 96       	adiw	r26, 0x01	; 1
    1290:	5d 01       	movw	r10, r26
    1292:	4e 01       	movw	r8, r28
    1294:	b6 e0       	ldi	r27, 0x06	; 6
    1296:	8b 0e       	add	r8, r27
    1298:	91 1c       	adc	r9, r1
    129a:	cc 24       	eor	r12, r12
    129c:	c3 94       	inc	r12
    129e:	d1 2c       	mov	r13, r1
    12a0:	0f 2e       	mov	r0, r31
    12a2:	f7 e0       	ldi	r31, 0x07	; 7
    12a4:	ef 2e       	mov	r14, r31
    12a6:	f1 2c       	mov	r15, r1
    12a8:	f0 2d       	mov	r31, r0
    12aa:	0e 94 d3 08 	call	0x11a6	; 0x11a6 <_Z11DTH_PinReadv>
    12ae:	81 11       	cpse	r24, r1
    12b0:	03 c0       	rjmp	.+6      	; 0x12b8 <_Z13DTR_ReadValuev+0x88>
    12b2:	1f 5f       	subi	r17, 0xFF	; 255
    12b4:	15 36       	cpi	r17, 0x65	; 101
    12b6:	c8 f3       	brcs	.-14     	; 0x12aa <_Z13DTR_ReadValuev+0x7a>
    12b8:	e0 e5       	ldi	r30, 0x50	; 80
    12ba:	ea 95       	dec	r30
    12bc:	f1 f7       	brne	.-4      	; 0x12ba <_Z13DTR_ReadValuev+0x8a>
    12be:	0e 94 d3 08 	call	0x11a6	; 0x11a6 <_Z11DTH_PinReadv>
    12c2:	81 11       	cpse	r24, r1
    12c4:	0a c0       	rjmp	.+20     	; 0x12da <_Z13DTR_ReadValuev+0xaa>
    12c6:	c6 01       	movw	r24, r12
    12c8:	0e 2c       	mov	r0, r14
    12ca:	02 c0       	rjmp	.+4      	; 0x12d0 <_Z13DTR_ReadValuev+0xa0>
    12cc:	88 0f       	add	r24, r24
    12ce:	99 1f       	adc	r25, r25
    12d0:	0a 94       	dec	r0
    12d2:	e2 f7       	brpl	.-8      	; 0x12cc <_Z13DTR_ReadValuev+0x9c>
    12d4:	80 95       	com	r24
    12d6:	08 23       	and	r16, r24
    12d8:	10 c0       	rjmp	.+32     	; 0x12fa <_Z13DTR_ReadValuev+0xca>
    12da:	c6 01       	movw	r24, r12
    12dc:	0e 2c       	mov	r0, r14
    12de:	02 c0       	rjmp	.+4      	; 0x12e4 <_Z13DTR_ReadValuev+0xb4>
    12e0:	88 0f       	add	r24, r24
    12e2:	99 1f       	adc	r25, r25
    12e4:	0a 94       	dec	r0
    12e6:	e2 f7       	brpl	.-8      	; 0x12e0 <_Z13DTR_ReadValuev+0xb0>
    12e8:	08 2b       	or	r16, r24
    12ea:	10 e0       	ldi	r17, 0x00	; 0
    12ec:	0e 94 d3 08 	call	0x11a6	; 0x11a6 <_Z11DTH_PinReadv>
    12f0:	88 23       	and	r24, r24
    12f2:	19 f0       	breq	.+6      	; 0x12fa <_Z13DTR_ReadValuev+0xca>
    12f4:	1f 5f       	subi	r17, 0xFF	; 255
    12f6:	15 36       	cpi	r17, 0x65	; 101
    12f8:	c9 f7       	brne	.-14     	; 0x12ec <_Z13DTR_ReadValuev+0xbc>
    12fa:	f1 e0       	ldi	r31, 0x01	; 1
    12fc:	ef 1a       	sub	r14, r31
    12fe:	f1 08       	sbc	r15, r1
    1300:	a0 f6       	brcc	.-88     	; 0x12aa <_Z13DTR_ReadValuev+0x7a>
    1302:	d5 01       	movw	r26, r10
    1304:	0d 93       	st	X+, r16
    1306:	5d 01       	movw	r10, r26
    1308:	8a 16       	cp	r8, r26
    130a:	9b 06       	cpc	r9, r27
    130c:	49 f6       	brne	.-110    	; 0x12a0 <_Z13DTR_ReadValuev+0x70>
    130e:	0b 81       	ldd	r16, Y+3	; 0x03
    1310:	10 e0       	ldi	r17, 0x00	; 0
    1312:	bc 80       	ldd	r11, Y+4	; 0x04
    1314:	8a 81       	ldd	r24, Y+2	; 0x02
    1316:	0f 2e       	mov	r0, r31
    1318:	fd ec       	ldi	r31, 0xCD	; 205
    131a:	af 2e       	mov	r10, r31
    131c:	f0 2d       	mov	r31, r0
    131e:	8a 9d       	mul	r24, r10
    1320:	81 2d       	mov	r24, r1
    1322:	11 24       	eor	r1, r1
    1324:	86 95       	lsr	r24
    1326:	86 95       	lsr	r24
    1328:	86 95       	lsr	r24
    132a:	69 81       	ldd	r22, Y+1	; 0x01
    132c:	70 e0       	ldi	r23, 0x00	; 0
    132e:	68 0f       	add	r22, r24
    1330:	71 1d       	adc	r23, r1
    1332:	07 2e       	mov	r0, r23
    1334:	00 0c       	add	r0, r0
    1336:	88 0b       	sbc	r24, r24
    1338:	99 0b       	sbc	r25, r25
    133a:	0e 94 d9 10 	call	0x21b2	; 0x21b2 <__floatsisf>
    133e:	6b 01       	movw	r12, r22
    1340:	7c 01       	movw	r14, r24
    1342:	60 93 2c 04 	sts	0x042C, r22	; 0x80042c <ReadHumidity>
    1346:	70 93 2d 04 	sts	0x042D, r23	; 0x80042d <ReadHumidity+0x1>
    134a:	80 93 2e 04 	sts	0x042E, r24	; 0x80042e <ReadHumidity+0x2>
    134e:	90 93 2f 04 	sts	0x042F, r25	; 0x80042f <ReadHumidity+0x3>
    1352:	ba 9c       	mul	r11, r10
    1354:	b1 2c       	mov	r11, r1
    1356:	11 24       	eor	r1, r1
    1358:	b6 94       	lsr	r11
    135a:	b6 94       	lsr	r11
    135c:	b6 94       	lsr	r11
    135e:	b8 01       	movw	r22, r16
    1360:	6b 0d       	add	r22, r11
    1362:	71 1d       	adc	r23, r1
    1364:	07 2e       	mov	r0, r23
    1366:	00 0c       	add	r0, r0
    1368:	88 0b       	sbc	r24, r24
    136a:	99 0b       	sbc	r25, r25
    136c:	0e 94 d9 10 	call	0x21b2	; 0x21b2 <__floatsisf>
    1370:	4b 01       	movw	r8, r22
    1372:	5c 01       	movw	r10, r24
    1374:	60 93 28 04 	sts	0x0428, r22	; 0x800428 <ReadTemp>
    1378:	70 93 29 04 	sts	0x0429, r23	; 0x800429 <ReadTemp+0x1>
    137c:	80 93 2a 04 	sts	0x042A, r24	; 0x80042a <ReadTemp+0x2>
    1380:	90 93 2b 04 	sts	0x042B, r25	; 0x80042b <ReadTemp+0x3>
    1384:	20 e0       	ldi	r18, 0x00	; 0
    1386:	30 e0       	ldi	r19, 0x00	; 0
    1388:	48 ec       	ldi	r20, 0xC8	; 200
    138a:	52 e4       	ldi	r21, 0x42	; 66
    138c:	c7 01       	movw	r24, r14
    138e:	b6 01       	movw	r22, r12
    1390:	0e 94 65 11 	call	0x22ca	; 0x22ca <__gesf2>
    1394:	18 16       	cp	r1, r24
    1396:	54 f0       	brlt	.+20     	; 0x13ac <_Z13DTR_ReadValuev+0x17c>
    1398:	20 e0       	ldi	r18, 0x00	; 0
    139a:	30 e0       	ldi	r19, 0x00	; 0
    139c:	40 e2       	ldi	r20, 0x20	; 32
    139e:	52 e4       	ldi	r21, 0x42	; 66
    13a0:	c5 01       	movw	r24, r10
    13a2:	b4 01       	movw	r22, r8
    13a4:	0e 94 65 11 	call	0x22ca	; 0x22ca <__gesf2>
    13a8:	18 16       	cp	r1, r24
    13aa:	a4 f4       	brge	.+40     	; 0x13d4 <_Z13DTR_ReadValuev+0x1a4>
    13ac:	40 92 2c 04 	sts	0x042C, r4	; 0x80042c <ReadHumidity>
    13b0:	50 92 2d 04 	sts	0x042D, r5	; 0x80042d <ReadHumidity+0x1>
    13b4:	60 92 2e 04 	sts	0x042E, r6	; 0x80042e <ReadHumidity+0x2>
    13b8:	70 92 2f 04 	sts	0x042F, r7	; 0x80042f <ReadHumidity+0x3>
    13bc:	8e 81       	ldd	r24, Y+6	; 0x06
    13be:	9f 81       	ldd	r25, Y+7	; 0x07
    13c0:	a8 85       	ldd	r26, Y+8	; 0x08
    13c2:	b9 85       	ldd	r27, Y+9	; 0x09
    13c4:	80 93 28 04 	sts	0x0428, r24	; 0x800428 <ReadTemp>
    13c8:	90 93 29 04 	sts	0x0429, r25	; 0x800429 <ReadTemp+0x1>
    13cc:	a0 93 2a 04 	sts	0x042A, r26	; 0x80042a <ReadTemp+0x2>
    13d0:	b0 93 2b 04 	sts	0x042B, r27	; 0x80042b <ReadTemp+0x3>
    13d4:	29 96       	adiw	r28, 0x09	; 9
    13d6:	0f b6       	in	r0, 0x3f	; 63
    13d8:	f8 94       	cli
    13da:	de bf       	out	0x3e, r29	; 62
    13dc:	0f be       	out	0x3f, r0	; 63
    13de:	cd bf       	out	0x3d, r28	; 61
    13e0:	df 91       	pop	r29
    13e2:	cf 91       	pop	r28
    13e4:	1f 91       	pop	r17
    13e6:	0f 91       	pop	r16
    13e8:	ff 90       	pop	r15
    13ea:	ef 90       	pop	r14
    13ec:	df 90       	pop	r13
    13ee:	cf 90       	pop	r12
    13f0:	bf 90       	pop	r11
    13f2:	af 90       	pop	r10
    13f4:	9f 90       	pop	r9
    13f6:	8f 90       	pop	r8
    13f8:	7f 90       	pop	r7
    13fa:	6f 90       	pop	r6
    13fc:	5f 90       	pop	r5
    13fe:	4f 90       	pop	r4
    1400:	08 95       	ret

00001402 <_Z6ReadPHv>:
    1402:	cf 93       	push	r28
    1404:	10 92 23 04 	sts	0x0423, r1	; 0x800423 <analogAV+0x1>
    1408:	10 92 22 04 	sts	0x0422, r1	; 0x800422 <analogAV>
    140c:	ca e0       	ldi	r28, 0x0A	; 10
    140e:	82 e0       	ldi	r24, 0x02	; 2
    1410:	0e 94 e2 08 	call	0x11c4	; 0x11c4 <_Z7ReadADCh>
    1414:	9c 01       	movw	r18, r24
    1416:	ad ec       	ldi	r26, 0xCD	; 205
    1418:	bc ec       	ldi	r27, 0xCC	; 204
    141a:	0e 94 9a 15 	call	0x2b34	; 0x2b34 <__umulhisi3>
    141e:	96 95       	lsr	r25
    1420:	87 95       	ror	r24
    1422:	96 95       	lsr	r25
    1424:	87 95       	ror	r24
    1426:	96 95       	lsr	r25
    1428:	87 95       	ror	r24
    142a:	20 91 22 04 	lds	r18, 0x0422	; 0x800422 <analogAV>
    142e:	30 91 23 04 	lds	r19, 0x0423	; 0x800423 <analogAV+0x1>
    1432:	82 0f       	add	r24, r18
    1434:	93 1f       	adc	r25, r19
    1436:	90 93 23 04 	sts	0x0423, r25	; 0x800423 <analogAV+0x1>
    143a:	80 93 22 04 	sts	0x0422, r24	; 0x800422 <analogAV>
    143e:	8f e1       	ldi	r24, 0x1F	; 31
    1440:	9e e4       	ldi	r25, 0x4E	; 78
    1442:	01 97       	sbiw	r24, 0x01	; 1
    1444:	f1 f7       	brne	.-4      	; 0x1442 <_Z6ReadPHv+0x40>
    1446:	00 c0       	rjmp	.+0      	; 0x1448 <_Z6ReadPHv+0x46>
    1448:	00 00       	nop
    144a:	c1 50       	subi	r28, 0x01	; 1
    144c:	01 f7       	brne	.-64     	; 0x140e <_Z6ReadPHv+0xc>
    144e:	80 91 22 04 	lds	r24, 0x0422	; 0x800422 <analogAV>
    1452:	90 91 23 04 	lds	r25, 0x0423	; 0x800423 <analogAV+0x1>
    1456:	bc 01       	movw	r22, r24
    1458:	66 0f       	add	r22, r22
    145a:	77 1f       	adc	r23, r23
    145c:	66 0f       	add	r22, r22
    145e:	77 1f       	adc	r23, r23
    1460:	68 0f       	add	r22, r24
    1462:	79 1f       	adc	r23, r25
    1464:	67 2f       	mov	r22, r23
    1466:	77 27       	eor	r23, r23
    1468:	66 95       	lsr	r22
    146a:	66 95       	lsr	r22
    146c:	80 e0       	ldi	r24, 0x00	; 0
    146e:	90 e0       	ldi	r25, 0x00	; 0
    1470:	0e 94 d7 10 	call	0x21ae	; 0x21ae <__floatunsisf>
    1474:	26 e6       	ldi	r18, 0x66	; 102
    1476:	36 e6       	ldi	r19, 0x66	; 102
    1478:	46 eb       	ldi	r20, 0xB6	; 182
    147a:	50 ec       	ldi	r21, 0xC0	; 192
    147c:	0e 94 6a 11 	call	0x22d4	; 0x22d4 <__mulsf3>
    1480:	20 91 00 01 	lds	r18, 0x0100	; 0x800100 <__DATA_REGION_ORIGIN__>
    1484:	30 91 01 01 	lds	r19, 0x0101	; 0x800101 <__DATA_REGION_ORIGIN__+0x1>
    1488:	40 91 02 01 	lds	r20, 0x0102	; 0x800102 <__DATA_REGION_ORIGIN__+0x2>
    148c:	50 91 03 01 	lds	r21, 0x0103	; 0x800103 <__DATA_REGION_ORIGIN__+0x3>
    1490:	0e 94 6b 10 	call	0x20d6	; 0x20d6 <__addsf3>
    1494:	60 93 24 04 	sts	0x0424, r22	; 0x800424 <phValue>
    1498:	70 93 25 04 	sts	0x0425, r23	; 0x800425 <phValue+0x1>
    149c:	80 93 26 04 	sts	0x0426, r24	; 0x800426 <phValue+0x2>
    14a0:	90 93 27 04 	sts	0x0427, r25	; 0x800427 <phValue+0x3>
    14a4:	cf 91       	pop	r28
    14a6:	08 95       	ret

000014a8 <_Z12ReadTubidityv>:
    14a8:	cf 93       	push	r28
    14aa:	10 92 1d 04 	sts	0x041D, r1	; 0x80041d <analogtubidity+0x1>
    14ae:	10 92 1c 04 	sts	0x041C, r1	; 0x80041c <analogtubidity>
    14b2:	ca e0       	ldi	r28, 0x0A	; 10
    14b4:	80 e0       	ldi	r24, 0x00	; 0
    14b6:	0e 94 e2 08 	call	0x11c4	; 0x11c4 <_Z7ReadADCh>
    14ba:	9c 01       	movw	r18, r24
    14bc:	ad ec       	ldi	r26, 0xCD	; 205
    14be:	bc ec       	ldi	r27, 0xCC	; 204
    14c0:	0e 94 9a 15 	call	0x2b34	; 0x2b34 <__umulhisi3>
    14c4:	96 95       	lsr	r25
    14c6:	87 95       	ror	r24
    14c8:	96 95       	lsr	r25
    14ca:	87 95       	ror	r24
    14cc:	96 95       	lsr	r25
    14ce:	87 95       	ror	r24
    14d0:	20 91 1c 04 	lds	r18, 0x041C	; 0x80041c <analogtubidity>
    14d4:	30 91 1d 04 	lds	r19, 0x041D	; 0x80041d <analogtubidity+0x1>
    14d8:	82 0f       	add	r24, r18
    14da:	93 1f       	adc	r25, r19
    14dc:	90 93 1d 04 	sts	0x041D, r25	; 0x80041d <analogtubidity+0x1>
    14e0:	80 93 1c 04 	sts	0x041C, r24	; 0x80041c <analogtubidity>
    14e4:	8f e1       	ldi	r24, 0x1F	; 31
    14e6:	9e e4       	ldi	r25, 0x4E	; 78
    14e8:	01 97       	sbiw	r24, 0x01	; 1
    14ea:	f1 f7       	brne	.-4      	; 0x14e8 <_Z12ReadTubidityv+0x40>
    14ec:	00 c0       	rjmp	.+0      	; 0x14ee <_Z12ReadTubidityv+0x46>
    14ee:	00 00       	nop
    14f0:	c1 50       	subi	r28, 0x01	; 1
    14f2:	01 f7       	brne	.-64     	; 0x14b4 <_Z12ReadTubidityv+0xc>
    14f4:	80 91 1c 04 	lds	r24, 0x041C	; 0x80041c <analogtubidity>
    14f8:	90 91 1d 04 	lds	r25, 0x041D	; 0x80041d <analogtubidity+0x1>
    14fc:	bc 01       	movw	r22, r24
    14fe:	66 0f       	add	r22, r22
    1500:	77 1f       	adc	r23, r23
    1502:	66 0f       	add	r22, r22
    1504:	77 1f       	adc	r23, r23
    1506:	68 0f       	add	r22, r24
    1508:	79 1f       	adc	r23, r25
    150a:	67 2f       	mov	r22, r23
    150c:	77 27       	eor	r23, r23
    150e:	66 95       	lsr	r22
    1510:	66 95       	lsr	r22
    1512:	80 e0       	ldi	r24, 0x00	; 0
    1514:	90 e0       	ldi	r25, 0x00	; 0
    1516:	0e 94 d7 10 	call	0x21ae	; 0x21ae <__floatunsisf>
    151a:	60 93 1e 04 	sts	0x041E, r22	; 0x80041e <tubidity>
    151e:	70 93 1f 04 	sts	0x041F, r23	; 0x80041f <tubidity+0x1>
    1522:	80 93 20 04 	sts	0x0420, r24	; 0x800420 <tubidity+0x2>
    1526:	90 93 21 04 	sts	0x0421, r25	; 0x800421 <tubidity+0x3>
    152a:	cf 91       	pop	r28
    152c:	08 95       	ret

0000152e <_Z16mainFunctionInitv>:
	#else
		//round up by default
		__ticks_dc = (uint32_t)(ceil(fabs(__tmp)));
	#endif

	__builtin_avr_delay_cycles(__ticks_dc);
    152e:	2f ef       	ldi	r18, 0xFF	; 255
    1530:	84 e3       	ldi	r24, 0x34	; 52
    1532:	9c e0       	ldi	r25, 0x0C	; 12
    1534:	21 50       	subi	r18, 0x01	; 1
    1536:	80 40       	sbci	r24, 0x00	; 0
    1538:	90 40       	sbci	r25, 0x00	; 0
    153a:	e1 f7       	brne	.-8      	; 0x1534 <_Z16mainFunctionInitv+0x6>
    153c:	00 c0       	rjmp	.+0      	; 0x153e <_Z16mainFunctionInitv+0x10>
    153e:	00 00       	nop
	
}

bool mainFunctionInit(){
	_delay_ms(500);
	oled_init();
    1540:	0e 94 bf 05 	call	0xb7e	; 0xb7e <_Z9oled_initv>
	USART_Init(9600);
    1544:	80 e8       	ldi	r24, 0x80	; 128
    1546:	95 e2       	ldi	r25, 0x25	; 37
    1548:	0e 94 f9 07 	call	0xff2	; 0xff2 <_Z10USART_Initj>
	PORTB|=(1<<0);// switch pull up
    154c:	28 9a       	sbi	0x05, 0	; 5
	DDRD|=(1<<6); //trigger pin
    154e:	56 9a       	sbi	0x0a, 6	; 10
	DDRD&=~(1<<7);
    1550:	57 98       	cbi	0x0a, 7	; 10
	//SoftUART_Init();
	//SoftUSART_tx_strln("Starterd");
	InitADC();
    1552:	0e 94 d7 08 	call	0x11ae	; 0x11ae <_Z7InitADCv>
	oled_gotoxy(0,2);
    1556:	62 e0       	ldi	r22, 0x02	; 2
    1558:	80 e0       	ldi	r24, 0x00	; 0
    155a:	0e 94 7c 05 	call	0xaf8	; 0xaf8 <_Z11oled_gotoxyhh>
    TWIStop();			
}

//***************************************************************************************
void oled_font_size (uint8_t byte){
	font_size = byte;
    155e:	81 e0       	ldi	r24, 0x01	; 1
    1560:	80 93 b3 05 	sts	0x05B3, r24	; 0x8005b3 <_ZL9font_size>
	oled_font_size(1);
	oled_write("Welcome");
    1564:	8d ec       	ldi	r24, 0xCD	; 205
    1566:	91 e0       	ldi	r25, 0x01	; 1
    1568:	9f 93       	push	r25
    156a:	8f 93       	push	r24
    156c:	0e 94 dc 06 	call	0xdb8	; 0xdb8 <_Z12oled_write_PPKcz>
    1570:	2f ef       	ldi	r18, 0xFF	; 255
    1572:	89 e6       	ldi	r24, 0x69	; 105
    1574:	98 e1       	ldi	r25, 0x18	; 24
    1576:	21 50       	subi	r18, 0x01	; 1
    1578:	80 40       	sbci	r24, 0x00	; 0
    157a:	90 40       	sbci	r25, 0x00	; 0
    157c:	e1 f7       	brne	.-8      	; 0x1576 <_Z16mainFunctionInitv+0x48>
    157e:	00 c0       	rjmp	.+0      	; 0x1580 <_Z16mainFunctionInitv+0x52>
    1580:	00 00       	nop
	_delay_ms(1000);
	
}
    1582:	0f 90       	pop	r0
    1584:	0f 90       	pop	r0
    1586:	08 95       	ret

00001588 <_Z8checkEspv>:

bool checkEsp(){
    1588:	cf 93       	push	r28
	USART_ClearRX();
    158a:	0e 94 ca 08 	call	0x1194	; 0x1194 <_Z13USART_ClearRXv>
	USART_TxStringln("AT");
    158e:	86 e0       	ldi	r24, 0x06	; 6
    1590:	91 e0       	ldi	r25, 0x01	; 1
    1592:	0e 94 27 08 	call	0x104e	; 0x104e <_Z16USART_TxStringlnPc>
    1596:	2f ef       	ldi	r18, 0xFF	; 255
    1598:	80 e7       	ldi	r24, 0x70	; 112
    159a:	92 e0       	ldi	r25, 0x02	; 2
    159c:	21 50       	subi	r18, 0x01	; 1
    159e:	80 40       	sbci	r24, 0x00	; 0
    15a0:	90 40       	sbci	r25, 0x00	; 0
    15a2:	e1 f7       	brne	.-8      	; 0x159c <_Z8checkEspv+0x14>
    15a4:	00 c0       	rjmp	.+0      	; 0x15a6 <_Z8checkEspv+0x1e>
    15a6:	00 00       	nop
	_delay_ms(100);
	USART_TxStringln("AT");
    15a8:	86 e0       	ldi	r24, 0x06	; 6
    15aa:	91 e0       	ldi	r25, 0x01	; 1
    15ac:	0e 94 27 08 	call	0x104e	; 0x104e <_Z16USART_TxStringlnPc>
    15b0:	2f ef       	ldi	r18, 0xFF	; 255
    15b2:	80 e7       	ldi	r24, 0x70	; 112
    15b4:	92 e0       	ldi	r25, 0x02	; 2
    15b6:	21 50       	subi	r18, 0x01	; 1
    15b8:	80 40       	sbci	r24, 0x00	; 0
    15ba:	90 40       	sbci	r25, 0x00	; 0
    15bc:	e1 f7       	brne	.-8      	; 0x15b6 <_Z8checkEspv+0x2e>
    15be:	00 c0       	rjmp	.+0      	; 0x15c0 <_Z8checkEspv+0x38>
    15c0:	00 00       	nop
	_delay_ms(100);
	if (USART_ReciveWait("OK",200))
    15c2:	40 e0       	ldi	r20, 0x00	; 0
    15c4:	68 ec       	ldi	r22, 0xC8	; 200
    15c6:	70 e0       	ldi	r23, 0x00	; 0
    15c8:	89 e0       	ldi	r24, 0x09	; 9
    15ca:	91 e0       	ldi	r25, 0x01	; 1
    15cc:	0e 94 78 08 	call	0x10f0	; 0x10f0 <_Z16USART_ReciveWaitPcjb>
    15d0:	c8 2f       	mov	r28, r24
    15d2:	81 11       	cpse	r24, r1
	{USART_ClearRX();
    15d4:	0e 94 ca 08 	call	0x1194	; 0x1194 <_Z13USART_ClearRXv>
		
	}
	else{
		return 0;
	}
}
    15d8:	8c 2f       	mov	r24, r28
    15da:	cf 91       	pop	r28
    15dc:	08 95       	ret

000015de <_Z8setupESPv>:

bool setupESP(){
    15de:	cf 93       	push	r28
	USART_ClearRX();
    15e0:	0e 94 ca 08 	call	0x1194	; 0x1194 <_Z13USART_ClearRXv>
	USART_TxStringln("AT+CWMODE=1");
    15e4:	8c e0       	ldi	r24, 0x0C	; 12
    15e6:	91 e0       	ldi	r25, 0x01	; 1
    15e8:	0e 94 27 08 	call	0x104e	; 0x104e <_Z16USART_TxStringlnPc>
    15ec:	2f ef       	ldi	r18, 0xFF	; 255
    15ee:	80 e7       	ldi	r24, 0x70	; 112
    15f0:	92 e0       	ldi	r25, 0x02	; 2
    15f2:	21 50       	subi	r18, 0x01	; 1
    15f4:	80 40       	sbci	r24, 0x00	; 0
    15f6:	90 40       	sbci	r25, 0x00	; 0
    15f8:	e1 f7       	brne	.-8      	; 0x15f2 <_Z8setupESPv+0x14>
    15fa:	00 c0       	rjmp	.+0      	; 0x15fc <_Z8setupESPv+0x1e>
    15fc:	00 00       	nop
	_delay_ms(100);
	if (USART_ReciveWait("OK",500))
    15fe:	40 e0       	ldi	r20, 0x00	; 0
    1600:	64 ef       	ldi	r22, 0xF4	; 244
    1602:	71 e0       	ldi	r23, 0x01	; 1
    1604:	89 e0       	ldi	r24, 0x09	; 9
    1606:	91 e0       	ldi	r25, 0x01	; 1
    1608:	0e 94 78 08 	call	0x10f0	; 0x10f0 <_Z16USART_ReciveWaitPcjb>
    160c:	c8 2f       	mov	r28, r24
    160e:	88 23       	and	r24, r24
    1610:	49 f1       	breq	.+82     	; 0x1664 <_Z8setupESPv+0x86>
	{USART_ClearRX();
    1612:	0e 94 ca 08 	call	0x1194	; 0x1194 <_Z13USART_ClearRXv>
	{	
		return 0;
	}
	
	
	USART_TxStringln("AT+CIPMUX=1");
    1616:	88 e1       	ldi	r24, 0x18	; 24
    1618:	91 e0       	ldi	r25, 0x01	; 1
    161a:	0e 94 27 08 	call	0x104e	; 0x104e <_Z16USART_TxStringlnPc>
    161e:	2f ef       	ldi	r18, 0xFF	; 255
    1620:	80 e7       	ldi	r24, 0x70	; 112
    1622:	92 e0       	ldi	r25, 0x02	; 2
    1624:	21 50       	subi	r18, 0x01	; 1
    1626:	80 40       	sbci	r24, 0x00	; 0
    1628:	90 40       	sbci	r25, 0x00	; 0
    162a:	e1 f7       	brne	.-8      	; 0x1624 <_Z8setupESPv+0x46>
    162c:	00 c0       	rjmp	.+0      	; 0x162e <_Z8setupESPv+0x50>
    162e:	00 00       	nop
	_delay_ms(100);
	if (USART_ReciveWait("OK",500))
    1630:	40 e0       	ldi	r20, 0x00	; 0
    1632:	64 ef       	ldi	r22, 0xF4	; 244
    1634:	71 e0       	ldi	r23, 0x01	; 1
    1636:	89 e0       	ldi	r24, 0x09	; 9
    1638:	91 e0       	ldi	r25, 0x01	; 1
    163a:	0e 94 78 08 	call	0x10f0	; 0x10f0 <_Z16USART_ReciveWaitPcjb>
    163e:	c8 2f       	mov	r28, r24
    1640:	88 23       	and	r24, r24
    1642:	19 f0       	breq	.+6      	; 0x164a <_Z8setupESPv+0x6c>
	{
		USART_ClearRX();
    1644:	0e 94 ca 08 	call	0x1194	; 0x1194 <_Z13USART_ClearRXv>
	}
	
	
	
	
	return 1;
    1648:	0d c0       	rjmp	.+26     	; 0x1664 <_Z8setupESPv+0x86>
	{
		USART_ClearRX();
		
	}
	else
	{	USART_TxStringln("AT+RST");
    164a:	84 e2       	ldi	r24, 0x24	; 36
    164c:	91 e0       	ldi	r25, 0x01	; 1
    164e:	0e 94 27 08 	call	0x104e	; 0x104e <_Z16USART_TxStringlnPc>
    1652:	2f ef       	ldi	r18, 0xFF	; 255
    1654:	89 e6       	ldi	r24, 0x69	; 105
    1656:	98 e1       	ldi	r25, 0x18	; 24
    1658:	21 50       	subi	r18, 0x01	; 1
    165a:	80 40       	sbci	r24, 0x00	; 0
    165c:	90 40       	sbci	r25, 0x00	; 0
    165e:	e1 f7       	brne	.-8      	; 0x1658 <_Z8setupESPv+0x7a>
    1660:	00 c0       	rjmp	.+0      	; 0x1662 <_Z8setupESPv+0x84>
    1662:	00 00       	nop
	
	
	
	return 1;
	
}
    1664:	8c 2f       	mov	r24, r28
    1666:	cf 91       	pop	r28
    1668:	08 95       	ret

0000166a <_Z11checkRouterv>:

bool checkRouter(){
	USART_TxStringln("AT+CWJAP?");
    166a:	8b e2       	ldi	r24, 0x2B	; 43
    166c:	91 e0       	ldi	r25, 0x01	; 1
    166e:	0e 94 27 08 	call	0x104e	; 0x104e <_Z16USART_TxStringlnPc>
	if (USART_ReciveWait("No AP",1000))
    1672:	40 e0       	ldi	r20, 0x00	; 0
    1674:	68 ee       	ldi	r22, 0xE8	; 232
    1676:	73 e0       	ldi	r23, 0x03	; 3
    1678:	85 e3       	ldi	r24, 0x35	; 53
    167a:	91 e0       	ldi	r25, 0x01	; 1
    167c:	0e 94 78 08 	call	0x10f0	; 0x10f0 <_Z16USART_ReciveWaitPcjb>
    1680:	88 23       	and	r24, r24
    1682:	21 f0       	breq	.+8      	; 0x168c <_Z11checkRouterv+0x22>
	{
		USART_ClearRX();
    1684:	0e 94 ca 08 	call	0x1194	; 0x1194 <_Z13USART_ClearRXv>
		return 0;
    1688:	80 e0       	ldi	r24, 0x00	; 0
    168a:	08 95       	ret
	} 
	else
	{
		USART_ClearRX();
    168c:	0e 94 ca 08 	call	0x1194	; 0x1194 <_Z13USART_ClearRXv>
		return 1;
    1690:	81 e0       	ldi	r24, 0x01	; 1
	}
	
}
    1692:	08 95       	ret

00001694 <_Z8makeHostv>:

bool makeHost(){
    1694:	2f 92       	push	r2
    1696:	3f 92       	push	r3
    1698:	4f 92       	push	r4
    169a:	5f 92       	push	r5
    169c:	6f 92       	push	r6
    169e:	7f 92       	push	r7
    16a0:	8f 92       	push	r8
    16a2:	9f 92       	push	r9
    16a4:	af 92       	push	r10
    16a6:	bf 92       	push	r11
    16a8:	cf 92       	push	r12
    16aa:	df 92       	push	r13
    16ac:	ef 92       	push	r14
    16ae:	ff 92       	push	r15
    16b0:	0f 93       	push	r16
    16b2:	1f 93       	push	r17
    16b4:	cf 93       	push	r28
    16b6:	df 93       	push	r29
    16b8:	cd b7       	in	r28, 0x3d	; 61
    16ba:	de b7       	in	r29, 0x3e	; 62
    16bc:	cc 57       	subi	r28, 0x7C	; 124
    16be:	d1 09       	sbc	r29, r1
    16c0:	0f b6       	in	r0, 0x3f	; 63
    16c2:	f8 94       	cli
    16c4:	de bf       	out	0x3e, r29	; 62
    16c6:	0f be       	out	0x3f, r0	; 63
    16c8:	cd bf       	out	0x3d, r28	; 61
	oled_clear_screen();
    16ca:	0e 94 a1 05 	call	0xb42	; 0xb42 <_Z17oled_clear_screenv>
	oled_gotoxy(0,2);
    16ce:	62 e0       	ldi	r22, 0x02	; 2
    16d0:	80 e0       	ldi	r24, 0x00	; 0
    16d2:	0e 94 7c 05 	call	0xaf8	; 0xaf8 <_Z11oled_gotoxyhh>
    16d6:	10 92 b3 05 	sts	0x05B3, r1	; 0x8005b3 <_ZL9font_size>
	oled_font_size(0);
	oled_write("Make host");
    16da:	83 ec       	ldi	r24, 0xC3	; 195
    16dc:	91 e0       	ldi	r25, 0x01	; 1
    16de:	9f 93       	push	r25
    16e0:	8f 93       	push	r24
    16e2:	0e 94 dc 06 	call	0xdb8	; 0xdb8 <_Z12oled_write_PPKcz>
	//**********************
	USART_TxStringln("AT+CWMODE=2");
    16e6:	8b e3       	ldi	r24, 0x3B	; 59
    16e8:	91 e0       	ldi	r25, 0x01	; 1
    16ea:	0e 94 27 08 	call	0x104e	; 0x104e <_Z16USART_TxStringlnPc>
    16ee:	2f ef       	ldi	r18, 0xFF	; 255
    16f0:	80 e7       	ldi	r24, 0x70	; 112
    16f2:	92 e0       	ldi	r25, 0x02	; 2
    16f4:	21 50       	subi	r18, 0x01	; 1
    16f6:	80 40       	sbci	r24, 0x00	; 0
    16f8:	90 40       	sbci	r25, 0x00	; 0
    16fa:	e1 f7       	brne	.-8      	; 0x16f4 <_Z8makeHostv+0x60>
    16fc:	00 c0       	rjmp	.+0      	; 0x16fe <_Z8makeHostv+0x6a>
    16fe:	00 00       	nop
	_delay_ms(100);
	if (USART_ReciveWait("OK",500))
    1700:	40 e0       	ldi	r20, 0x00	; 0
    1702:	64 ef       	ldi	r22, 0xF4	; 244
    1704:	71 e0       	ldi	r23, 0x01	; 1
    1706:	89 e0       	ldi	r24, 0x09	; 9
    1708:	91 e0       	ldi	r25, 0x01	; 1
    170a:	0e 94 78 08 	call	0x10f0	; 0x10f0 <_Z16USART_ReciveWaitPcjb>
    170e:	18 2f       	mov	r17, r24
    1710:	0f 90       	pop	r0
    1712:	0f 90       	pop	r0
    1714:	88 23       	and	r24, r24
    1716:	09 f4       	brne	.+2      	; 0x171a <_Z8makeHostv+0x86>
    1718:	9b c2       	rjmp	.+1334   	; 0x1c50 <_Z8makeHostv+0x5bc>
	{USART_ClearRX();
    171a:	0e 94 ca 08 	call	0x1194	; 0x1194 <_Z13USART_ClearRXv>
	else
	{
		return 0;
	}
	//**********************
	USART_TxStringln("AT+CIPMUX=1");
    171e:	88 e1       	ldi	r24, 0x18	; 24
    1720:	91 e0       	ldi	r25, 0x01	; 1
    1722:	0e 94 27 08 	call	0x104e	; 0x104e <_Z16USART_TxStringlnPc>
    1726:	ef ef       	ldi	r30, 0xFF	; 255
    1728:	f0 e7       	ldi	r31, 0x70	; 112
    172a:	22 e0       	ldi	r18, 0x02	; 2
    172c:	e1 50       	subi	r30, 0x01	; 1
    172e:	f0 40       	sbci	r31, 0x00	; 0
    1730:	20 40       	sbci	r18, 0x00	; 0
    1732:	e1 f7       	brne	.-8      	; 0x172c <_Z8makeHostv+0x98>
    1734:	00 c0       	rjmp	.+0      	; 0x1736 <_Z8makeHostv+0xa2>
    1736:	00 00       	nop
	_delay_ms(100);
	if (USART_ReciveWait("OK",500))
    1738:	40 e0       	ldi	r20, 0x00	; 0
    173a:	64 ef       	ldi	r22, 0xF4	; 244
    173c:	71 e0       	ldi	r23, 0x01	; 1
    173e:	89 e0       	ldi	r24, 0x09	; 9
    1740:	91 e0       	ldi	r25, 0x01	; 1
    1742:	0e 94 78 08 	call	0x10f0	; 0x10f0 <_Z16USART_ReciveWaitPcjb>
    1746:	18 2f       	mov	r17, r24
    1748:	88 23       	and	r24, r24
    174a:	d9 f0       	breq	.+54     	; 0x1782 <_Z8makeHostv+0xee>
	{
		USART_ClearRX();
    174c:	0e 94 ca 08 	call	0x1194	; 0x1194 <_Z13USART_ClearRXv>
		_delay_ms(1000);
		
		return 0;
	}
	//**********************
	USART_TxStringln("AT+CIPDINFO=0");
    1750:	87 e4       	ldi	r24, 0x47	; 71
    1752:	91 e0       	ldi	r25, 0x01	; 1
    1754:	0e 94 27 08 	call	0x104e	; 0x104e <_Z16USART_TxStringlnPc>
    1758:	8f ef       	ldi	r24, 0xFF	; 255
    175a:	90 e7       	ldi	r25, 0x70	; 112
    175c:	e2 e0       	ldi	r30, 0x02	; 2
    175e:	81 50       	subi	r24, 0x01	; 1
    1760:	90 40       	sbci	r25, 0x00	; 0
    1762:	e0 40       	sbci	r30, 0x00	; 0
    1764:	e1 f7       	brne	.-8      	; 0x175e <_Z8makeHostv+0xca>
    1766:	00 c0       	rjmp	.+0      	; 0x1768 <_Z8makeHostv+0xd4>
    1768:	00 00       	nop
	_delay_ms(100);
	if (USART_ReciveWait("OK",500))
    176a:	40 e0       	ldi	r20, 0x00	; 0
    176c:	64 ef       	ldi	r22, 0xF4	; 244
    176e:	71 e0       	ldi	r23, 0x01	; 1
    1770:	89 e0       	ldi	r24, 0x09	; 9
    1772:	91 e0       	ldi	r25, 0x01	; 1
    1774:	0e 94 78 08 	call	0x10f0	; 0x10f0 <_Z16USART_ReciveWaitPcjb>
    1778:	18 2f       	mov	r17, r24
    177a:	88 23       	and	r24, r24
    177c:	09 f4       	brne	.+2      	; 0x1780 <_Z8makeHostv+0xec>
    177e:	68 c2       	rjmp	.+1232   	; 0x1c50 <_Z8makeHostv+0x5bc>
    1780:	0e c0       	rjmp	.+28     	; 0x179e <_Z8makeHostv+0x10a>
	{
		USART_ClearRX();
		
	}
	else
	{	USART_TxStringln("AT+RST");
    1782:	84 e2       	ldi	r24, 0x24	; 36
    1784:	91 e0       	ldi	r25, 0x01	; 1
    1786:	0e 94 27 08 	call	0x104e	; 0x104e <_Z16USART_TxStringlnPc>
    178a:	ff ef       	ldi	r31, 0xFF	; 255
    178c:	29 e6       	ldi	r18, 0x69	; 105
    178e:	88 e1       	ldi	r24, 0x18	; 24
    1790:	f1 50       	subi	r31, 0x01	; 1
    1792:	20 40       	sbci	r18, 0x00	; 0
    1794:	80 40       	sbci	r24, 0x00	; 0
    1796:	e1 f7       	brne	.-8      	; 0x1790 <_Z8makeHostv+0xfc>
    1798:	00 c0       	rjmp	.+0      	; 0x179a <_Z8makeHostv+0x106>
    179a:	00 00       	nop
		_delay_ms(1000);
		
		return 0;
    179c:	59 c2       	rjmp	.+1202   	; 0x1c50 <_Z8makeHostv+0x5bc>
	}
	//**********************
	USART_TxStringln("AT+CIPDINFO=0");
	_delay_ms(100);
	if (USART_ReciveWait("OK",500))
	{USART_ClearRX();
    179e:	0e 94 ca 08 	call	0x1194	; 0x1194 <_Z13USART_ClearRXv>
	else
	{
		return 0;
	}
	//**********************
	USART_TxStringln("AT+CIPSERVER=1,80");
    17a2:	85 e5       	ldi	r24, 0x55	; 85
    17a4:	91 e0       	ldi	r25, 0x01	; 1
    17a6:	0e 94 27 08 	call	0x104e	; 0x104e <_Z16USART_TxStringlnPc>
    17aa:	9f ef       	ldi	r25, 0xFF	; 255
    17ac:	e0 e7       	ldi	r30, 0x70	; 112
    17ae:	f2 e0       	ldi	r31, 0x02	; 2
    17b0:	91 50       	subi	r25, 0x01	; 1
    17b2:	e0 40       	sbci	r30, 0x00	; 0
    17b4:	f0 40       	sbci	r31, 0x00	; 0
    17b6:	e1 f7       	brne	.-8      	; 0x17b0 <_Z8makeHostv+0x11c>
    17b8:	00 c0       	rjmp	.+0      	; 0x17ba <_Z8makeHostv+0x126>
    17ba:	00 00       	nop
	_delay_ms(100);
	if (USART_ReciveWait("OK",1000))
    17bc:	40 e0       	ldi	r20, 0x00	; 0
    17be:	68 ee       	ldi	r22, 0xE8	; 232
    17c0:	73 e0       	ldi	r23, 0x03	; 3
    17c2:	89 e0       	ldi	r24, 0x09	; 9
    17c4:	91 e0       	ldi	r25, 0x01	; 1
    17c6:	0e 94 78 08 	call	0x10f0	; 0x10f0 <_Z16USART_ReciveWaitPcjb>
    17ca:	18 2f       	mov	r17, r24
    17cc:	88 23       	and	r24, r24
    17ce:	09 f4       	brne	.+2      	; 0x17d2 <_Z8makeHostv+0x13e>
    17d0:	3f c2       	rjmp	.+1150   	; 0x1c50 <_Z8makeHostv+0x5bc>
	{USART_ClearRX();
    17d2:	0e 94 ca 08 	call	0x1194	; 0x1194 <_Z13USART_ClearRXv>
	}
	else
	{	return 0;
	}
	USART_TxStringln("AT+CIFSR");
    17d6:	87 e6       	ldi	r24, 0x67	; 103
    17d8:	91 e0       	ldi	r25, 0x01	; 1
    17da:	0e 94 27 08 	call	0x104e	; 0x104e <_Z16USART_TxStringlnPc>
    17de:	2f ef       	ldi	r18, 0xFF	; 255
    17e0:	80 e7       	ldi	r24, 0x70	; 112
    17e2:	92 e0       	ldi	r25, 0x02	; 2
    17e4:	21 50       	subi	r18, 0x01	; 1
    17e6:	80 40       	sbci	r24, 0x00	; 0
    17e8:	90 40       	sbci	r25, 0x00	; 0
    17ea:	e1 f7       	brne	.-8      	; 0x17e4 <_Z8makeHostv+0x150>
    17ec:	00 c0       	rjmp	.+0      	; 0x17ee <_Z8makeHostv+0x15a>
    17ee:	00 00       	nop
	_delay_ms(100);
	if (USART_ReciveWait("OK",500))
    17f0:	40 e0       	ldi	r20, 0x00	; 0
    17f2:	64 ef       	ldi	r22, 0xF4	; 244
    17f4:	71 e0       	ldi	r23, 0x01	; 1
    17f6:	89 e0       	ldi	r24, 0x09	; 9
    17f8:	91 e0       	ldi	r25, 0x01	; 1
    17fa:	0e 94 78 08 	call	0x10f0	; 0x10f0 <_Z16USART_ReciveWaitPcjb>
    17fe:	18 2f       	mov	r17, r24
    1800:	88 23       	and	r24, r24
    1802:	09 f4       	brne	.+2      	; 0x1806 <_Z8makeHostv+0x172>
    1804:	25 c2       	rjmp	.+1098   	; 0x1c50 <_Z8makeHostv+0x5bc>
	{	
		tempcharacter=strtok(rxvalue,"\"");
    1806:	66 e2       	ldi	r22, 0x26	; 38
    1808:	73 e0       	ldi	r23, 0x03	; 3
    180a:	83 e6       	ldi	r24, 0x63	; 99
    180c:	95 e0       	ldi	r25, 0x05	; 5
    180e:	0e 94 22 17 	call	0x2e44	; 0x2e44 <strtok>
    1812:	90 93 62 05 	sts	0x0562, r25	; 0x800562 <tempcharacter+0x1>
    1816:	80 93 61 05 	sts	0x0561, r24	; 0x800561 <tempcharacter>
    181a:	15 e0       	ldi	r17, 0x05	; 5
		for(uint8_t i=0;i<5;i++){
			tempcharacter=strtok(NULL,"\"");
    181c:	66 e2       	ldi	r22, 0x26	; 38
    181e:	73 e0       	ldi	r23, 0x03	; 3
    1820:	80 e0       	ldi	r24, 0x00	; 0
    1822:	90 e0       	ldi	r25, 0x00	; 0
    1824:	0e 94 22 17 	call	0x2e44	; 0x2e44 <strtok>
    1828:	90 93 62 05 	sts	0x0562, r25	; 0x800562 <tempcharacter+0x1>
    182c:	80 93 61 05 	sts	0x0561, r24	; 0x800561 <tempcharacter>
			if (strstr(tempcharacter,"192"))
    1830:	60 e7       	ldi	r22, 0x70	; 112
    1832:	71 e0       	ldi	r23, 0x01	; 1
    1834:	0e 94 53 17 	call	0x2ea6	; 0x2ea6 <strstr>
    1838:	89 2b       	or	r24, r25
    183a:	69 f0       	breq	.+26     	; 0x1856 <_Z8makeHostv+0x1c2>
			{	
				
				oled_gotoxy(0,3);
    183c:	63 e0       	ldi	r22, 0x03	; 3
    183e:	80 e0       	ldi	r24, 0x00	; 0
    1840:	0e 94 7c 05 	call	0xaf8	; 0xaf8 <_Z11oled_gotoxyhh>
    1844:	10 92 b3 05 	sts	0x05B3, r1	; 0x8005b3 <_ZL9font_size>
				oled_font_size(0);
				oled_write_str(tempcharacter);
    1848:	80 91 61 05 	lds	r24, 0x0561	; 0x800561 <tempcharacter>
    184c:	90 91 62 05 	lds	r25, 0x0562	; 0x800562 <tempcharacter+0x1>
    1850:	0e 94 cd 06 	call	0xd9a	; 0xd9a <_Z14oled_write_strPc>
				break;
    1854:	05 c0       	rjmp	.+10     	; 0x1860 <_Z8makeHostv+0x1cc>
			}
			if (i==4)
    1856:	11 30       	cpi	r17, 0x01	; 1
    1858:	09 f4       	brne	.+2      	; 0x185c <_Z8makeHostv+0x1c8>
    185a:	f9 c1       	rjmp	.+1010   	; 0x1c4e <_Z8makeHostv+0x5ba>
    185c:	11 50       	subi	r17, 0x01	; 1
	USART_TxStringln("AT+CIFSR");
	_delay_ms(100);
	if (USART_ReciveWait("OK",500))
	{	
		tempcharacter=strtok(rxvalue,"\"");
		for(uint8_t i=0;i<5;i++){
    185e:	f1 f6       	brne	.-68     	; 0x181c <_Z8makeHostv+0x188>
	{
		return 0;
	}
	//******************************************
	//wait for login
	 if (USART_ReciveWait("Host"))
    1860:	40 e0       	ldi	r20, 0x00	; 0
    1862:	60 e0       	ldi	r22, 0x00	; 0
    1864:	70 e0       	ldi	r23, 0x00	; 0
    1866:	84 e7       	ldi	r24, 0x74	; 116
    1868:	91 e0       	ldi	r25, 0x01	; 1
    186a:	0e 94 78 08 	call	0x10f0	; 0x10f0 <_Z16USART_ReciveWaitPcjb>
    186e:	18 2f       	mov	r17, r24
    1870:	88 23       	and	r24, r24
    1872:	09 f4       	brne	.+2      	; 0x1876 <_Z8makeHostv+0x1e2>
    1874:	5b c0       	rjmp	.+182    	; 0x192c <_Z8makeHostv+0x298>
    1876:	ef ef       	ldi	r30, 0xFF	; 255
    1878:	f4 e3       	ldi	r31, 0x34	; 52
    187a:	2c e0       	ldi	r18, 0x0C	; 12
    187c:	e1 50       	subi	r30, 0x01	; 1
    187e:	f0 40       	sbci	r31, 0x00	; 0
    1880:	20 40       	sbci	r18, 0x00	; 0
    1882:	e1 f7       	brne	.-8      	; 0x187c <_Z8makeHostv+0x1e8>
    1884:	00 c0       	rjmp	.+0      	; 0x1886 <_Z8makeHostv+0x1f2>
    1886:	00 00       	nop
	 {_delay_ms(500);
		USART_ClearRX(); 
    1888:	0e 94 ca 08 	call	0x1194	; 0x1194 <_Z13USART_ClearRXv>
		oled_gotoxy(0,4);
    188c:	64 e0       	ldi	r22, 0x04	; 4
    188e:	80 e0       	ldi	r24, 0x00	; 0
    1890:	0e 94 7c 05 	call	0xaf8	; 0xaf8 <_Z11oled_gotoxyhh>
		oled_write("loggin OK");
    1894:	89 eb       	ldi	r24, 0xB9	; 185
    1896:	91 e0       	ldi	r25, 0x01	; 1
    1898:	9f 93       	push	r25
    189a:	8f 93       	push	r24
    189c:	0e 94 dc 06 	call	0xdb8	; 0xdb8 <_Z12oled_write_PPKcz>
		oled_write("loggin failed");
		 return 0;
	 }
	//******************************************
	char*webpage="<!DOCTYPE html><html><body><h1>Router Configer</h1><form action=\"/action_page.php\"><label for=\"roterUsr\">Username:</label><input type=\"text\" id=\"roterUsr\" name=\"roterUsr\"><br><br><label for=\"routerPass\">Password:</label><input type=\"text\" id=\"routerPass\" name=\"routerPass\"><br><br><input type=\"submit\" value=\"Submit\"></form></body></html>\r\n";
	sprintf(lengthcal,"AT+CIPSEND=0,%d",strlen(webpage));
    18a0:	81 e0       	ldi	r24, 0x01	; 1
    18a2:	8f 93       	push	r24
    18a4:	84 e5       	ldi	r24, 0x54	; 84
    18a6:	8f 93       	push	r24
    18a8:	89 e7       	ldi	r24, 0x79	; 121
    18aa:	91 e0       	ldi	r25, 0x01	; 1
    18ac:	9f 93       	push	r25
    18ae:	8f 93       	push	r24
    18b0:	89 e9       	ldi	r24, 0x99	; 153
    18b2:	94 e0       	ldi	r25, 0x04	; 4
    18b4:	9f 93       	push	r25
    18b6:	8f 93       	push	r24
    18b8:	0e 94 08 18 	call	0x3010	; 0x3010 <sprintf>
	USART_TxStringln(lengthcal);
    18bc:	89 e9       	ldi	r24, 0x99	; 153
    18be:	94 e0       	ldi	r25, 0x04	; 4
    18c0:	0e 94 27 08 	call	0x104e	; 0x104e <_Z16USART_TxStringlnPc>
    18c4:	8f ef       	ldi	r24, 0xFF	; 255
    18c6:	94 e3       	ldi	r25, 0x34	; 52
    18c8:	ec e0       	ldi	r30, 0x0C	; 12
    18ca:	81 50       	subi	r24, 0x01	; 1
    18cc:	90 40       	sbci	r25, 0x00	; 0
    18ce:	e0 40       	sbci	r30, 0x00	; 0
    18d0:	e1 f7       	brne	.-8      	; 0x18ca <_Z8makeHostv+0x236>
    18d2:	00 c0       	rjmp	.+0      	; 0x18d4 <_Z8makeHostv+0x240>
    18d4:	00 00       	nop
	_delay_ms(500);
	USART_TxString(webpage);
    18d6:	89 e8       	ldi	r24, 0x89	; 137
    18d8:	91 e0       	ldi	r25, 0x01	; 1
    18da:	0e 94 18 08 	call	0x1030	; 0x1030 <_Z14USART_TxStringPc>
    18de:	ff ef       	ldi	r31, 0xFF	; 255
    18e0:	24 e3       	ldi	r18, 0x34	; 52
    18e2:	8c e0       	ldi	r24, 0x0C	; 12
    18e4:	f1 50       	subi	r31, 0x01	; 1
    18e6:	20 40       	sbci	r18, 0x00	; 0
    18e8:	80 40       	sbci	r24, 0x00	; 0
    18ea:	e1 f7       	brne	.-8      	; 0x18e4 <_Z8makeHostv+0x250>
    18ec:	00 c0       	rjmp	.+0      	; 0x18ee <_Z8makeHostv+0x25a>
    18ee:	00 00       	nop
	_delay_ms(500);
	//**********************
	USART_TxStringln("AT+CIPCLOSE=0");
    18f0:	8e ed       	ldi	r24, 0xDE	; 222
    18f2:	92 e0       	ldi	r25, 0x02	; 2
    18f4:	0e 94 27 08 	call	0x104e	; 0x104e <_Z16USART_TxStringlnPc>
    18f8:	9f ef       	ldi	r25, 0xFF	; 255
    18fa:	e0 e7       	ldi	r30, 0x70	; 112
    18fc:	f2 e0       	ldi	r31, 0x02	; 2
    18fe:	91 50       	subi	r25, 0x01	; 1
    1900:	e0 40       	sbci	r30, 0x00	; 0
    1902:	f0 40       	sbci	r31, 0x00	; 0
    1904:	e1 f7       	brne	.-8      	; 0x18fe <_Z8makeHostv+0x26a>
    1906:	00 c0       	rjmp	.+0      	; 0x1908 <_Z8makeHostv+0x274>
    1908:	00 00       	nop
	_delay_ms(100);
	if (USART_ReciveWait("OK",500))
    190a:	40 e0       	ldi	r20, 0x00	; 0
    190c:	64 ef       	ldi	r22, 0xF4	; 244
    190e:	71 e0       	ldi	r23, 0x01	; 1
    1910:	89 e0       	ldi	r24, 0x09	; 9
    1912:	91 e0       	ldi	r25, 0x01	; 1
    1914:	0e 94 78 08 	call	0x10f0	; 0x10f0 <_Z16USART_ReciveWaitPcjb>
    1918:	18 2f       	mov	r17, r24
    191a:	0f b6       	in	r0, 0x3f	; 63
    191c:	f8 94       	cli
    191e:	de bf       	out	0x3e, r29	; 62
    1920:	0f be       	out	0x3f, r0	; 63
    1922:	cd bf       	out	0x3d, r28	; 61
    1924:	11 23       	and	r17, r17
    1926:	09 f4       	brne	.+2      	; 0x192a <_Z8makeHostv+0x296>
    1928:	93 c1       	rjmp	.+806    	; 0x1c50 <_Z8makeHostv+0x5bc>
    192a:	0f c0       	rjmp	.+30     	; 0x194a <_Z8makeHostv+0x2b6>
		USART_ClearRX(); 
		oled_gotoxy(0,4);
		oled_write("loggin OK");
	 } 
	 else
	 {	USART_ClearRX(); 
    192c:	0e 94 ca 08 	call	0x1194	; 0x1194 <_Z13USART_ClearRXv>
		oled_gotoxy(0,4);
    1930:	64 e0       	ldi	r22, 0x04	; 4
    1932:	80 e0       	ldi	r24, 0x00	; 0
    1934:	0e 94 7c 05 	call	0xaf8	; 0xaf8 <_Z11oled_gotoxyhh>
		oled_write("loggin failed");
    1938:	8b ea       	ldi	r24, 0xAB	; 171
    193a:	91 e0       	ldi	r25, 0x01	; 1
    193c:	9f 93       	push	r25
    193e:	8f 93       	push	r24
    1940:	0e 94 dc 06 	call	0xdb8	; 0xdb8 <_Z12oled_write_PPKcz>
		 return 0;
    1944:	0f 90       	pop	r0
    1946:	0f 90       	pop	r0
    1948:	83 c1       	rjmp	.+774    	; 0x1c50 <_Z8makeHostv+0x5bc>
	_delay_ms(500);
	//**********************
	USART_TxStringln("AT+CIPCLOSE=0");
	_delay_ms(100);
	if (USART_ReciveWait("OK",500))
	{USART_ClearRX();
    194a:	0e 94 ca 08 	call	0x1194	; 0x1194 <_Z13USART_ClearRXv>
	{
		return 0;
	}
	
	//**********************
	USART_ClearRX();
    194e:	0e 94 ca 08 	call	0x1194	; 0x1194 <_Z13USART_ClearRXv>
	UCSR0B&=~(1<<RXCIE0);
    1952:	e1 ec       	ldi	r30, 0xC1	; 193
    1954:	f0 e0       	ldi	r31, 0x00	; 0
    1956:	80 81       	ld	r24, Z
    1958:	8f 77       	andi	r24, 0x7F	; 127
    195a:	80 83       	st	Z, r24
	char tempchar[100];
	char scanChar[4];
	uint8_t tempcharCount=0;
	while(1){
	while ( !(UCSR0A & (1<<RXC0)) ){
    195c:	0f 2e       	mov	r0, r31
    195e:	f0 ec       	ldi	r31, 0xC0	; 192
    1960:	ef 2e       	mov	r14, r31
    1962:	f1 2c       	mov	r15, r1
    1964:	f0 2d       	mov	r31, r0
    1966:	8e 01       	movw	r16, r28
    1968:	0b 59       	subi	r16, 0x9B	; 155
    196a:	1f 4f       	sbci	r17, 0xFF	; 255
		scanChar[i]=tempchar[i];
	}
	
	if (strstr(scanChar,"php?"))
	{	
		memset(wifiUsername,0,40);
    196c:	0f 2e       	mov	r0, r31
    196e:	f1 e7       	ldi	r31, 0x71	; 113
    1970:	6f 2e       	mov	r6, r31
    1972:	f4 e0       	ldi	r31, 0x04	; 4
    1974:	7f 2e       	mov	r7, r31
    1976:	f0 2d       	mov	r31, r0
		memset(wifiPassword,0,40);
    1978:	0f 2e       	mov	r0, r31
    197a:	f9 e4       	ldi	r31, 0x49	; 73
    197c:	4f 2e       	mov	r4, r31
    197e:	f4 e0       	ldi	r31, 0x04	; 4
    1980:	5f 2e       	mov	r5, r31
    1982:	f0 2d       	mov	r31, r0
		oled_gotoxy(0,4);
		oled_write("                ");
    1984:	0f 2e       	mov	r0, r31
    1986:	fa e9       	ldi	r31, 0x9A	; 154
    1988:	2f 2e       	mov	r2, r31
    198a:	f1 e0       	ldi	r31, 0x01	; 1
    198c:	3f 2e       	mov	r3, r31
    198e:	f0 2d       	mov	r31, r0
		oled_gotoxy(0,5);
		oled_write("                ");
		/*php?roterUsr=Slt-home-fwifi-dilan&routerPass=dilan12345 HTTP/1.1*/
		strncpy(wifiUsername,strstr(tempchar,"roterUsr")+9,strlen(strstr(tempchar,"roterUsr")+9)-strlen(strstr(tempchar,"&routerPass")));
    1990:	fe 01       	movw	r30, r28
    1992:	31 96       	adiw	r30, 0x01	; 1
    1994:	5f 01       	movw	r10, r30
	UCSR0B&=~(1<<RXCIE0);
	char tempchar[100];
	char scanChar[4];
	uint8_t tempcharCount=0;
	while(1){
	while ( !(UCSR0A & (1<<RXC0)) ){
    1996:	f7 01       	movw	r30, r14
    1998:	80 81       	ld	r24, Z
    199a:	88 23       	and	r24, r24
    199c:	e4 f7       	brge	.-8      	; 0x1996 <_Z8makeHostv+0x302>
		
	}
	
	char Readchar=UDR0;
    199e:	e6 ec       	ldi	r30, 0xC6	; 198
    19a0:	f0 e0       	ldi	r31, 0x00	; 0
    19a2:	90 81       	ld	r25, Z
    19a4:	fe 01       	movw	r30, r28
    19a6:	31 96       	adiw	r30, 0x01	; 1
	for(uint8_t i=0;i<100;i++){
		tempchar[i]=tempchar[i+1];
    19a8:	81 81       	ldd	r24, Z+1	; 0x01
    19aa:	81 93       	st	Z+, r24
	while ( !(UCSR0A & (1<<RXC0)) ){
		
	}
	
	char Readchar=UDR0;
	for(uint8_t i=0;i<100;i++){
    19ac:	0e 17       	cp	r16, r30
    19ae:	1f 07       	cpc	r17, r31
    19b0:	d9 f7       	brne	.-10     	; 0x19a8 <_Z8makeHostv+0x314>
		tempchar[i]=tempchar[i+1];
	}
	tempchar[99]=Readchar;
    19b2:	a5 96       	adiw	r28, 0x25	; 37
    19b4:	9f af       	std	Y+63, r25	; 0x3f
    19b6:	a5 97       	sbiw	r28, 0x25	; 37
	for(uint8_t i=0;i<4;i++){
		scanChar[i]=tempchar[i];
    19b8:	89 81       	ldd	r24, Y+1	; 0x01
    19ba:	f8 01       	movw	r30, r16
    19bc:	80 83       	st	Z, r24
    19be:	8a 81       	ldd	r24, Y+2	; 0x02
    19c0:	81 83       	std	Z+1, r24	; 0x01
    19c2:	8b 81       	ldd	r24, Y+3	; 0x03
    19c4:	82 83       	std	Z+2, r24	; 0x02
    19c6:	8c 81       	ldd	r24, Y+4	; 0x04
    19c8:	83 83       	std	Z+3, r24	; 0x03
	}
	
	if (strstr(scanChar,"php?"))
    19ca:	6c ee       	ldi	r22, 0xEC	; 236
    19cc:	72 e0       	ldi	r23, 0x02	; 2
    19ce:	c8 01       	movw	r24, r16
    19d0:	0e 94 53 17 	call	0x2ea6	; 0x2ea6 <strstr>
    19d4:	89 2b       	or	r24, r25
    19d6:	09 f4       	brne	.+2      	; 0x19da <_Z8makeHostv+0x346>
    19d8:	99 c0       	rjmp	.+306    	; 0x1b0c <_Z8makeHostv+0x478>
	{	
		memset(wifiUsername,0,40);
    19da:	f3 01       	movw	r30, r6
    19dc:	28 e2       	ldi	r18, 0x28	; 40
    19de:	11 92       	st	Z+, r1
    19e0:	2a 95       	dec	r18
    19e2:	e9 f7       	brne	.-6      	; 0x19de <_Z8makeHostv+0x34a>
		memset(wifiPassword,0,40);
    19e4:	f2 01       	movw	r30, r4
    19e6:	28 e2       	ldi	r18, 0x28	; 40
    19e8:	11 92       	st	Z+, r1
    19ea:	2a 95       	dec	r18
    19ec:	e9 f7       	brne	.-6      	; 0x19e8 <_Z8makeHostv+0x354>
		oled_gotoxy(0,4);
    19ee:	64 e0       	ldi	r22, 0x04	; 4
    19f0:	80 e0       	ldi	r24, 0x00	; 0
    19f2:	0e 94 7c 05 	call	0xaf8	; 0xaf8 <_Z11oled_gotoxyhh>
		oled_write("                ");
    19f6:	3f 92       	push	r3
    19f8:	2f 92       	push	r2
    19fa:	0e 94 dc 06 	call	0xdb8	; 0xdb8 <_Z12oled_write_PPKcz>
		oled_gotoxy(0,5);
    19fe:	65 e0       	ldi	r22, 0x05	; 5
    1a00:	80 e0       	ldi	r24, 0x00	; 0
    1a02:	0e 94 7c 05 	call	0xaf8	; 0xaf8 <_Z11oled_gotoxyhh>
		oled_write("                ");
    1a06:	89 e8       	ldi	r24, 0x89	; 137
    1a08:	91 e0       	ldi	r25, 0x01	; 1
    1a0a:	9f 93       	push	r25
    1a0c:	8f 93       	push	r24
    1a0e:	0e 94 dc 06 	call	0xdb8	; 0xdb8 <_Z12oled_write_PPKcz>
		/*php?roterUsr=Slt-home-fwifi-dilan&routerPass=dilan12345 HTTP/1.1*/
		strncpy(wifiUsername,strstr(tempchar,"roterUsr")+9,strlen(strstr(tempchar,"roterUsr")+9)-strlen(strstr(tempchar,"&routerPass")));
    1a12:	61 ef       	ldi	r22, 0xF1	; 241
    1a14:	72 e0       	ldi	r23, 0x02	; 2
    1a16:	c5 01       	movw	r24, r10
    1a18:	0e 94 53 17 	call	0x2ea6	; 0x2ea6 <strstr>
    1a1c:	09 96       	adiw	r24, 0x09	; 9
    1a1e:	4c 01       	movw	r8, r24
    1a20:	fc 01       	movw	r30, r24
    1a22:	01 90       	ld	r0, Z+
    1a24:	00 20       	and	r0, r0
    1a26:	e9 f7       	brne	.-6      	; 0x1a22 <_Z8makeHostv+0x38e>
    1a28:	31 97       	sbiw	r30, 0x01	; 1
    1a2a:	6f 01       	movw	r12, r30
    1a2c:	c8 1a       	sub	r12, r24
    1a2e:	d9 0a       	sbc	r13, r25
    1a30:	6a ef       	ldi	r22, 0xFA	; 250
    1a32:	72 e0       	ldi	r23, 0x02	; 2
    1a34:	c5 01       	movw	r24, r10
    1a36:	0e 94 53 17 	call	0x2ea6	; 0x2ea6 <strstr>
    1a3a:	fc 01       	movw	r30, r24
    1a3c:	01 90       	ld	r0, Z+
    1a3e:	00 20       	and	r0, r0
    1a40:	e9 f7       	brne	.-6      	; 0x1a3c <_Z8makeHostv+0x3a8>
    1a42:	31 97       	sbiw	r30, 0x01	; 1
    1a44:	e8 1b       	sub	r30, r24
    1a46:	f9 0b       	sbc	r31, r25
    1a48:	a6 01       	movw	r20, r12
    1a4a:	4e 1b       	sub	r20, r30
    1a4c:	5f 0b       	sbc	r21, r31
    1a4e:	b4 01       	movw	r22, r8
    1a50:	c3 01       	movw	r24, r6
    1a52:	0e 94 39 17 	call	0x2e72	; 0x2e72 <strncpy>
		strncpy(wifiPassword,strstr(tempchar,"routerPass")+11,strlen(strstr(tempchar,"routerPass")+11)-strlen(strstr(tempchar," HTTP")));
    1a56:	6b ef       	ldi	r22, 0xFB	; 251
    1a58:	72 e0       	ldi	r23, 0x02	; 2
    1a5a:	c5 01       	movw	r24, r10
    1a5c:	0e 94 53 17 	call	0x2ea6	; 0x2ea6 <strstr>
    1a60:	0b 96       	adiw	r24, 0x0b	; 11
    1a62:	4c 01       	movw	r8, r24
    1a64:	fc 01       	movw	r30, r24
    1a66:	01 90       	ld	r0, Z+
    1a68:	00 20       	and	r0, r0
    1a6a:	e9 f7       	brne	.-6      	; 0x1a66 <_Z8makeHostv+0x3d2>
    1a6c:	31 97       	sbiw	r30, 0x01	; 1
    1a6e:	6f 01       	movw	r12, r30
    1a70:	c8 1a       	sub	r12, r24
    1a72:	d9 0a       	sbc	r13, r25
    1a74:	66 e0       	ldi	r22, 0x06	; 6
    1a76:	73 e0       	ldi	r23, 0x03	; 3
    1a78:	c5 01       	movw	r24, r10
    1a7a:	0e 94 53 17 	call	0x2ea6	; 0x2ea6 <strstr>
    1a7e:	fc 01       	movw	r30, r24
    1a80:	01 90       	ld	r0, Z+
    1a82:	00 20       	and	r0, r0
    1a84:	e9 f7       	brne	.-6      	; 0x1a80 <_Z8makeHostv+0x3ec>
    1a86:	31 97       	sbiw	r30, 0x01	; 1
    1a88:	e8 1b       	sub	r30, r24
    1a8a:	f9 0b       	sbc	r31, r25
    1a8c:	a6 01       	movw	r20, r12
    1a8e:	4e 1b       	sub	r20, r30
    1a90:	5f 0b       	sbc	r21, r31
    1a92:	b4 01       	movw	r22, r8
    1a94:	c2 01       	movw	r24, r4
    1a96:	0e 94 39 17 	call	0x2e72	; 0x2e72 <strncpy>
		oled_gotoxy(0,5);
    1a9a:	65 e0       	ldi	r22, 0x05	; 5
    1a9c:	80 e0       	ldi	r24, 0x00	; 0
    1a9e:	0e 94 7c 05 	call	0xaf8	; 0xaf8 <_Z11oled_gotoxyhh>
		char tempwifi[20];
		strncpy(tempwifi,wifiUsername,15);
    1aa2:	4f e0       	ldi	r20, 0x0F	; 15
    1aa4:	50 e0       	ldi	r21, 0x00	; 0
    1aa6:	b3 01       	movw	r22, r6
    1aa8:	ce 01       	movw	r24, r28
    1aaa:	87 59       	subi	r24, 0x97	; 151
    1aac:	9f 4f       	sbci	r25, 0xFF	; 255
    1aae:	0e 94 39 17 	call	0x2e72	; 0x2e72 <strncpy>
		oled_write_str(tempwifi);
    1ab2:	ce 01       	movw	r24, r28
    1ab4:	87 59       	subi	r24, 0x97	; 151
    1ab6:	9f 4f       	sbci	r25, 0xFF	; 255
    1ab8:	0e 94 cd 06 	call	0xd9a	; 0xd9a <_Z14oled_write_strPc>
		oled_gotoxy(0,6);
    1abc:	66 e0       	ldi	r22, 0x06	; 6
    1abe:	80 e0       	ldi	r24, 0x00	; 0
    1ac0:	0e 94 7c 05 	call	0xaf8	; 0xaf8 <_Z11oled_gotoxyhh>
		strncpy(tempwifi,wifiPassword,15);
    1ac4:	4f e0       	ldi	r20, 0x0F	; 15
    1ac6:	50 e0       	ldi	r21, 0x00	; 0
    1ac8:	b2 01       	movw	r22, r4
    1aca:	ce 01       	movw	r24, r28
    1acc:	87 59       	subi	r24, 0x97	; 151
    1ace:	9f 4f       	sbci	r25, 0xFF	; 255
    1ad0:	0e 94 39 17 	call	0x2e72	; 0x2e72 <strncpy>
		oled_write_str(tempwifi);
    1ad4:	ce 01       	movw	r24, r28
    1ad6:	87 59       	subi	r24, 0x97	; 151
    1ad8:	9f 4f       	sbci	r25, 0xFF	; 255
    1ada:	0e 94 cd 06 	call	0xd9a	; 0xd9a <_Z14oled_write_strPc>
		memset(scanChar,0,4);
    1ade:	84 e0       	ldi	r24, 0x04	; 4
    1ae0:	f8 01       	movw	r30, r16
    1ae2:	11 92       	st	Z+, r1
    1ae4:	8a 95       	dec	r24
    1ae6:	e9 f7       	brne	.-6      	; 0x1ae2 <_Z8makeHostv+0x44e>
		memset(tempchar,0,100);//clear array
    1ae8:	f5 01       	movw	r30, r10
    1aea:	24 e6       	ldi	r18, 0x64	; 100
    1aec:	11 92       	st	Z+, r1
    1aee:	2a 95       	dec	r18
    1af0:	e9 f7       	brne	.-6      	; 0x1aec <_Z8makeHostv+0x458>
    1af2:	8f ef       	ldi	r24, 0xFF	; 255
    1af4:	99 e6       	ldi	r25, 0x69	; 105
    1af6:	e8 e1       	ldi	r30, 0x18	; 24
    1af8:	81 50       	subi	r24, 0x01	; 1
    1afa:	90 40       	sbci	r25, 0x00	; 0
    1afc:	e0 40       	sbci	r30, 0x00	; 0
    1afe:	e1 f7       	brne	.-8      	; 0x1af8 <_Z8makeHostv+0x464>
    1b00:	00 c0       	rjmp	.+0      	; 0x1b02 <_Z8makeHostv+0x46e>
    1b02:	00 00       	nop
    1b04:	0f 90       	pop	r0
    1b06:	0f 90       	pop	r0
    1b08:	0f 90       	pop	r0
    1b0a:	0f 90       	pop	r0
		_delay_ms(1000);
	}
	if (!(PINB&0b00000001))
    1b0c:	18 99       	sbic	0x03, 0	; 3
    1b0e:	43 cf       	rjmp	.-378    	; 0x1996 <_Z8makeHostv+0x302>
	{
		break;
	}
	
	}
UCSR0B|=(1<<RXCIE0);// enable rec intruppert
    1b10:	e1 ec       	ldi	r30, 0xC1	; 193
    1b12:	f0 e0       	ldi	r31, 0x00	; 0
    1b14:	80 81       	ld	r24, Z
    1b16:	80 68       	ori	r24, 0x80	; 128
    1b18:	80 83       	st	Z, r24
//**********************************************************************
	USART_ClearRX();
    1b1a:	0e 94 ca 08 	call	0x1194	; 0x1194 <_Z13USART_ClearRXv>
	USART_TxStringln("AT+CWMODE=1");
    1b1e:	8c e0       	ldi	r24, 0x0C	; 12
    1b20:	91 e0       	ldi	r25, 0x01	; 1
    1b22:	0e 94 27 08 	call	0x104e	; 0x104e <_Z16USART_TxStringlnPc>
    1b26:	ff ef       	ldi	r31, 0xFF	; 255
    1b28:	20 e7       	ldi	r18, 0x70	; 112
    1b2a:	82 e0       	ldi	r24, 0x02	; 2
    1b2c:	f1 50       	subi	r31, 0x01	; 1
    1b2e:	20 40       	sbci	r18, 0x00	; 0
    1b30:	80 40       	sbci	r24, 0x00	; 0
    1b32:	e1 f7       	brne	.-8      	; 0x1b2c <_Z8makeHostv+0x498>
    1b34:	00 c0       	rjmp	.+0      	; 0x1b36 <_Z8makeHostv+0x4a2>
    1b36:	00 00       	nop
	_delay_ms(100);
	if (USART_ReciveWait("OK",500))
    1b38:	40 e0       	ldi	r20, 0x00	; 0
    1b3a:	64 ef       	ldi	r22, 0xF4	; 244
    1b3c:	71 e0       	ldi	r23, 0x01	; 1
    1b3e:	89 e0       	ldi	r24, 0x09	; 9
    1b40:	91 e0       	ldi	r25, 0x01	; 1
    1b42:	0e 94 78 08 	call	0x10f0	; 0x10f0 <_Z16USART_ReciveWaitPcjb>
    1b46:	18 2f       	mov	r17, r24
    1b48:	88 23       	and	r24, r24
    1b4a:	c9 f0       	breq	.+50     	; 0x1b7e <_Z8makeHostv+0x4ea>
	{USART_ClearRX();
    1b4c:	0e 94 ca 08 	call	0x1194	; 0x1194 <_Z13USART_ClearRXv>
	{	USART_ClearRX();
		return 0;
	}
	
	
	USART_TxStringln("AT+CIPMUX=1");
    1b50:	88 e1       	ldi	r24, 0x18	; 24
    1b52:	91 e0       	ldi	r25, 0x01	; 1
    1b54:	0e 94 27 08 	call	0x104e	; 0x104e <_Z16USART_TxStringlnPc>
    1b58:	9f ef       	ldi	r25, 0xFF	; 255
    1b5a:	e0 e7       	ldi	r30, 0x70	; 112
    1b5c:	f2 e0       	ldi	r31, 0x02	; 2
    1b5e:	91 50       	subi	r25, 0x01	; 1
    1b60:	e0 40       	sbci	r30, 0x00	; 0
    1b62:	f0 40       	sbci	r31, 0x00	; 0
    1b64:	e1 f7       	brne	.-8      	; 0x1b5e <_Z8makeHostv+0x4ca>
    1b66:	00 c0       	rjmp	.+0      	; 0x1b68 <_Z8makeHostv+0x4d4>
    1b68:	00 00       	nop
	_delay_ms(100);
	if (USART_ReciveWait("OK",500))
    1b6a:	40 e0       	ldi	r20, 0x00	; 0
    1b6c:	64 ef       	ldi	r22, 0xF4	; 244
    1b6e:	71 e0       	ldi	r23, 0x01	; 1
    1b70:	89 e0       	ldi	r24, 0x09	; 9
    1b72:	91 e0       	ldi	r25, 0x01	; 1
    1b74:	0e 94 78 08 	call	0x10f0	; 0x10f0 <_Z16USART_ReciveWaitPcjb>
    1b78:	88 23       	and	r24, r24
    1b7a:	31 f0       	breq	.+12     	; 0x1b88 <_Z8makeHostv+0x4f4>
    1b7c:	03 c0       	rjmp	.+6      	; 0x1b84 <_Z8makeHostv+0x4f0>
	_delay_ms(100);
	if (USART_ReciveWait("OK",500))
	{USART_ClearRX();
	} 
	else
	{	USART_ClearRX();
    1b7e:	0e 94 ca 08 	call	0x1194	; 0x1194 <_Z13USART_ClearRXv>
		return 0;
    1b82:	66 c0       	rjmp	.+204    	; 0x1c50 <_Z8makeHostv+0x5bc>
	
	USART_TxStringln("AT+CIPMUX=1");
	_delay_ms(100);
	if (USART_ReciveWait("OK",500))
	{
		USART_ClearRX();
    1b84:	0e 94 ca 08 	call	0x1194	; 0x1194 <_Z13USART_ClearRXv>
		
	}
//**************************************************************
	
USART_ClearRX();
    1b88:	0e 94 ca 08 	call	0x1194	; 0x1194 <_Z13USART_ClearRXv>

USART_TxStringln("AT+CWQAP");
    1b8c:	8c e0       	ldi	r24, 0x0C	; 12
    1b8e:	93 e0       	ldi	r25, 0x03	; 3
    1b90:	0e 94 27 08 	call	0x104e	; 0x104e <_Z16USART_TxStringlnPc>
if (USART_ReciveWait("OK",1000))
    1b94:	40 e0       	ldi	r20, 0x00	; 0
    1b96:	68 ee       	ldi	r22, 0xE8	; 232
    1b98:	73 e0       	ldi	r23, 0x03	; 3
    1b9a:	89 e0       	ldi	r24, 0x09	; 9
    1b9c:	91 e0       	ldi	r25, 0x01	; 1
    1b9e:	0e 94 78 08 	call	0x10f0	; 0x10f0 <_Z16USART_ReciveWaitPcjb>
    1ba2:	88 23       	and	r24, r24
    1ba4:	09 f4       	brne	.+2      	; 0x1ba8 <_Z8makeHostv+0x514>
    1ba6:	52 c0       	rjmp	.+164    	; 0x1c4c <_Z8makeHostv+0x5b8>
{
	USART_ClearRX();
    1ba8:	0e 94 ca 08 	call	0x1194	; 0x1194 <_Z13USART_ClearRXv>
	
	sprintf(tempcharacter,"AT+CWJAP=\"%s\",\"%s\"",wifiUsername,wifiPassword);
    1bac:	89 e4       	ldi	r24, 0x49	; 73
    1bae:	94 e0       	ldi	r25, 0x04	; 4
    1bb0:	9f 93       	push	r25
    1bb2:	8f 93       	push	r24
    1bb4:	81 e7       	ldi	r24, 0x71	; 113
    1bb6:	94 e0       	ldi	r25, 0x04	; 4
    1bb8:	9f 93       	push	r25
    1bba:	8f 93       	push	r24
    1bbc:	85 e1       	ldi	r24, 0x15	; 21
    1bbe:	93 e0       	ldi	r25, 0x03	; 3
    1bc0:	9f 93       	push	r25
    1bc2:	8f 93       	push	r24
    1bc4:	80 91 62 05 	lds	r24, 0x0562	; 0x800562 <tempcharacter+0x1>
    1bc8:	8f 93       	push	r24
    1bca:	80 91 61 05 	lds	r24, 0x0561	; 0x800561 <tempcharacter>
    1bce:	8f 93       	push	r24
    1bd0:	0e 94 08 18 	call	0x3010	; 0x3010 <sprintf>
	
	USART_TxStringln(tempcharacter);
    1bd4:	80 91 61 05 	lds	r24, 0x0561	; 0x800561 <tempcharacter>
    1bd8:	90 91 62 05 	lds	r25, 0x0562	; 0x800562 <tempcharacter+0x1>
    1bdc:	0e 94 27 08 	call	0x104e	; 0x104e <_Z16USART_TxStringlnPc>
	
	if (USART_ReciveWait("GOT",10000))
    1be0:	40 e0       	ldi	r20, 0x00	; 0
    1be2:	60 e1       	ldi	r22, 0x10	; 16
    1be4:	77 e2       	ldi	r23, 0x27	; 39
    1be6:	88 e2       	ldi	r24, 0x28	; 40
    1be8:	93 e0       	ldi	r25, 0x03	; 3
    1bea:	0e 94 78 08 	call	0x10f0	; 0x10f0 <_Z16USART_ReciveWaitPcjb>
    1bee:	18 2f       	mov	r17, r24
    1bf0:	0f b6       	in	r0, 0x3f	; 63
    1bf2:	f8 94       	cli
    1bf4:	de bf       	out	0x3e, r29	; 62
    1bf6:	0f be       	out	0x3f, r0	; 63
    1bf8:	cd bf       	out	0x3d, r28	; 61
    1bfa:	11 23       	and	r17, r17
    1bfc:	79 f0       	breq	.+30     	; 0x1c1c <_Z8makeHostv+0x588>
	{
		oled_gotoxy(0,5);
    1bfe:	65 e0       	ldi	r22, 0x05	; 5
    1c00:	80 e0       	ldi	r24, 0x00	; 0
    1c02:	0e 94 7c 05 	call	0xaf8	; 0xaf8 <_Z11oled_gotoxyhh>
		oled_write("Router Connected");
    1c06:	88 e7       	ldi	r24, 0x78	; 120
    1c08:	91 e0       	ldi	r25, 0x01	; 1
    1c0a:	9f 93       	push	r25
    1c0c:	8f 93       	push	r24
    1c0e:	0e 94 dc 06 	call	0xdb8	; 0xdb8 <_Z12oled_write_PPKcz>
		USART_ClearRX();
    1c12:	0e 94 ca 08 	call	0x1194	; 0x1194 <_Z13USART_ClearRXv>
		return 1;
    1c16:	0f 90       	pop	r0
    1c18:	0f 90       	pop	r0
    1c1a:	1a c0       	rjmp	.+52     	; 0x1c50 <_Z8makeHostv+0x5bc>
	}
	else
	{	
		oled_gotoxy(0,5);
    1c1c:	65 e0       	ldi	r22, 0x05	; 5
    1c1e:	80 e0       	ldi	r24, 0x00	; 0
    1c20:	0e 94 7c 05 	call	0xaf8	; 0xaf8 <_Z11oled_gotoxyhh>
		oled_write("not connected");
    1c24:	8a e6       	ldi	r24, 0x6A	; 106
    1c26:	91 e0       	ldi	r25, 0x01	; 1
    1c28:	9f 93       	push	r25
    1c2a:	8f 93       	push	r24
    1c2c:	0e 94 dc 06 	call	0xdb8	; 0xdb8 <_Z12oled_write_PPKcz>
    1c30:	9f ef       	ldi	r25, 0xFF	; 255
    1c32:	e3 ed       	ldi	r30, 0xD3	; 211
    1c34:	f0 e3       	ldi	r31, 0x30	; 48
    1c36:	91 50       	subi	r25, 0x01	; 1
    1c38:	e0 40       	sbci	r30, 0x00	; 0
    1c3a:	f0 40       	sbci	r31, 0x00	; 0
    1c3c:	e1 f7       	brne	.-8      	; 0x1c36 <_Z8makeHostv+0x5a2>
    1c3e:	00 c0       	rjmp	.+0      	; 0x1c40 <_Z8makeHostv+0x5ac>
    1c40:	00 00       	nop
		_delay_ms(2000);
		USART_ClearRX();
    1c42:	0e 94 ca 08 	call	0x1194	; 0x1194 <_Z13USART_ClearRXv>
		return 0;
    1c46:	0f 90       	pop	r0
    1c48:	0f 90       	pop	r0
    1c4a:	02 c0       	rjmp	.+4      	; 0x1c50 <_Z8makeHostv+0x5bc>
	}
	}
 }
    1c4c:	02 c0       	rjmp	.+4      	; 0x1c52 <_Z8makeHostv+0x5be>
				oled_font_size(0);
				oled_write_str(tempcharacter);
				break;
			}
			if (i==4)
			{return 0;
    1c4e:	10 e0       	ldi	r17, 0x00	; 0
    1c50:	81 2f       	mov	r24, r17
		_delay_ms(2000);
		USART_ClearRX();
		return 0;
	}
	}
 }
    1c52:	c4 58       	subi	r28, 0x84	; 132
    1c54:	df 4f       	sbci	r29, 0xFF	; 255
    1c56:	0f b6       	in	r0, 0x3f	; 63
    1c58:	f8 94       	cli
    1c5a:	de bf       	out	0x3e, r29	; 62
    1c5c:	0f be       	out	0x3f, r0	; 63
    1c5e:	cd bf       	out	0x3d, r28	; 61
    1c60:	df 91       	pop	r29
    1c62:	cf 91       	pop	r28
    1c64:	1f 91       	pop	r17
    1c66:	0f 91       	pop	r16
    1c68:	ff 90       	pop	r15
    1c6a:	ef 90       	pop	r14
    1c6c:	df 90       	pop	r13
    1c6e:	cf 90       	pop	r12
    1c70:	bf 90       	pop	r11
    1c72:	af 90       	pop	r10
    1c74:	9f 90       	pop	r9
    1c76:	8f 90       	pop	r8
    1c78:	7f 90       	pop	r7
    1c7a:	6f 90       	pop	r6
    1c7c:	5f 90       	pop	r5
    1c7e:	4f 90       	pop	r4
    1c80:	3f 90       	pop	r3
    1c82:	2f 90       	pop	r2
    1c84:	08 95       	ret

00001c86 <_Z10uploaddatav>:
 
bool uploaddata(){
    1c86:	cf 93       	push	r28
    1c88:	df 93       	push	r29
    1c8a:	2f ef       	ldi	r18, 0xFF	; 255
    1c8c:	34 e3       	ldi	r19, 0x34	; 52
    1c8e:	8c e0       	ldi	r24, 0x0C	; 12
    1c90:	21 50       	subi	r18, 0x01	; 1
    1c92:	30 40       	sbci	r19, 0x00	; 0
    1c94:	80 40       	sbci	r24, 0x00	; 0
    1c96:	e1 f7       	brne	.-8      	; 0x1c90 <_Z10uploaddatav+0xa>
    1c98:	00 c0       	rjmp	.+0      	; 0x1c9a <_Z10uploaddatav+0x14>
    1c9a:	00 00       	nop
	
	_delay_ms(500);
	USART_ClearRX();
    1c9c:	0e 94 ca 08 	call	0x1194	; 0x1194 <_Z13USART_ClearRXv>
	sprintf(lengthcal,"AT+CIPSTART=4,\"TCP\",\"%s\",80",server);
    1ca0:	80 91 05 01 	lds	r24, 0x0105	; 0x800105 <server+0x1>
    1ca4:	8f 93       	push	r24
    1ca6:	80 91 04 01 	lds	r24, 0x0104	; 0x800104 <server>
    1caa:	8f 93       	push	r24
    1cac:	8c e2       	ldi	r24, 0x2C	; 44
    1cae:	93 e0       	ldi	r25, 0x03	; 3
    1cb0:	9f 93       	push	r25
    1cb2:	8f 93       	push	r24
    1cb4:	89 e9       	ldi	r24, 0x99	; 153
    1cb6:	94 e0       	ldi	r25, 0x04	; 4
    1cb8:	9f 93       	push	r25
    1cba:	8f 93       	push	r24
    1cbc:	0e 94 08 18 	call	0x3010	; 0x3010 <sprintf>
	USART_TxStringln(lengthcal);
    1cc0:	89 e9       	ldi	r24, 0x99	; 153
    1cc2:	94 e0       	ldi	r25, 0x04	; 4
    1cc4:	0e 94 27 08 	call	0x104e	; 0x104e <_Z16USART_TxStringlnPc>
	if (USART_ReciveWait("CONNECT",3000))
    1cc8:	40 e0       	ldi	r20, 0x00	; 0
    1cca:	68 eb       	ldi	r22, 0xB8	; 184
    1ccc:	7b e0       	ldi	r23, 0x0B	; 11
    1cce:	88 e4       	ldi	r24, 0x48	; 72
    1cd0:	93 e0       	ldi	r25, 0x03	; 3
    1cd2:	0e 94 78 08 	call	0x10f0	; 0x10f0 <_Z16USART_ReciveWaitPcjb>
    1cd6:	0f 90       	pop	r0
    1cd8:	0f 90       	pop	r0
    1cda:	0f 90       	pop	r0
    1cdc:	0f 90       	pop	r0
    1cde:	0f 90       	pop	r0
    1ce0:	0f 90       	pop	r0
    1ce2:	88 23       	and	r24, r24
    1ce4:	09 f4       	brne	.+2      	; 0x1ce8 <_Z10uploaddatav+0x62>
    1ce6:	65 c0       	rjmp	.+202    	; 0x1db2 <_Z10uploaddatav+0x12c>
	{USART_ClearRX();
    1ce8:	0e 94 ca 08 	call	0x1194	; 0x1194 <_Z13USART_ClearRXv>
	{
		USART_ClearRX();
		return 0;
	}
	
	sprintf(getreqvest,"GET /naveen/dbconnect.php?waterlevel=25&pH=%.1f&temperature=%.1f&humidity=%.1f&turbidity=%.1f\r\n",phValue,ReadTemp,ReadHumidity,tubidity);
    1cec:	80 91 21 04 	lds	r24, 0x0421	; 0x800421 <tubidity+0x3>
    1cf0:	8f 93       	push	r24
    1cf2:	80 91 20 04 	lds	r24, 0x0420	; 0x800420 <tubidity+0x2>
    1cf6:	8f 93       	push	r24
    1cf8:	80 91 1f 04 	lds	r24, 0x041F	; 0x80041f <tubidity+0x1>
    1cfc:	8f 93       	push	r24
    1cfe:	80 91 1e 04 	lds	r24, 0x041E	; 0x80041e <tubidity>
    1d02:	8f 93       	push	r24
    1d04:	80 91 2f 04 	lds	r24, 0x042F	; 0x80042f <ReadHumidity+0x3>
    1d08:	8f 93       	push	r24
    1d0a:	80 91 2e 04 	lds	r24, 0x042E	; 0x80042e <ReadHumidity+0x2>
    1d0e:	8f 93       	push	r24
    1d10:	80 91 2d 04 	lds	r24, 0x042D	; 0x80042d <ReadHumidity+0x1>
    1d14:	8f 93       	push	r24
    1d16:	80 91 2c 04 	lds	r24, 0x042C	; 0x80042c <ReadHumidity>
    1d1a:	8f 93       	push	r24
    1d1c:	80 91 2b 04 	lds	r24, 0x042B	; 0x80042b <ReadTemp+0x3>
    1d20:	8f 93       	push	r24
    1d22:	80 91 2a 04 	lds	r24, 0x042A	; 0x80042a <ReadTemp+0x2>
    1d26:	8f 93       	push	r24
    1d28:	80 91 29 04 	lds	r24, 0x0429	; 0x800429 <ReadTemp+0x1>
    1d2c:	8f 93       	push	r24
    1d2e:	80 91 28 04 	lds	r24, 0x0428	; 0x800428 <ReadTemp>
    1d32:	8f 93       	push	r24
    1d34:	80 91 27 04 	lds	r24, 0x0427	; 0x800427 <phValue+0x3>
    1d38:	8f 93       	push	r24
    1d3a:	80 91 26 04 	lds	r24, 0x0426	; 0x800426 <phValue+0x2>
    1d3e:	8f 93       	push	r24
    1d40:	80 91 25 04 	lds	r24, 0x0425	; 0x800425 <phValue+0x1>
    1d44:	8f 93       	push	r24
    1d46:	80 91 24 04 	lds	r24, 0x0424	; 0x800424 <phValue>
    1d4a:	8f 93       	push	r24
    1d4c:	80 e5       	ldi	r24, 0x50	; 80
    1d4e:	93 e0       	ldi	r25, 0x03	; 3
    1d50:	9f 93       	push	r25
    1d52:	8f 93       	push	r24
    1d54:	c9 ee       	ldi	r28, 0xE9	; 233
    1d56:	d4 e0       	ldi	r29, 0x04	; 4
    1d58:	df 93       	push	r29
    1d5a:	cf 93       	push	r28
    1d5c:	0e 94 08 18 	call	0x3010	; 0x3010 <sprintf>
	
	
	sprintf(lengthcal,"AT+CIPSEND=4,%d\r\n",strlen(getreqvest));
    1d60:	09 90       	ld	r0, Y+
    1d62:	00 20       	and	r0, r0
    1d64:	e9 f7       	brne	.-6      	; 0x1d60 <_Z10uploaddatav+0xda>
    1d66:	21 97       	sbiw	r28, 0x01	; 1
    1d68:	c9 5e       	subi	r28, 0xE9	; 233
    1d6a:	d4 40       	sbci	r29, 0x04	; 4
    1d6c:	df 93       	push	r29
    1d6e:	cf 93       	push	r28
    1d70:	80 eb       	ldi	r24, 0xB0	; 176
    1d72:	93 e0       	ldi	r25, 0x03	; 3
    1d74:	9f 93       	push	r25
    1d76:	8f 93       	push	r24
    1d78:	89 e9       	ldi	r24, 0x99	; 153
    1d7a:	94 e0       	ldi	r25, 0x04	; 4
    1d7c:	9f 93       	push	r25
    1d7e:	8f 93       	push	r24
    1d80:	0e 94 08 18 	call	0x3010	; 0x3010 <sprintf>
	
	
	USART_TxString(lengthcal);
    1d84:	89 e9       	ldi	r24, 0x99	; 153
    1d86:	94 e0       	ldi	r25, 0x04	; 4
    1d88:	0e 94 18 08 	call	0x1030	; 0x1030 <_Z14USART_TxStringPc>
	if (USART_ReciveWait("OK",2000))
    1d8c:	40 e0       	ldi	r20, 0x00	; 0
    1d8e:	60 ed       	ldi	r22, 0xD0	; 208
    1d90:	77 e0       	ldi	r23, 0x07	; 7
    1d92:	89 e0       	ldi	r24, 0x09	; 9
    1d94:	91 e0       	ldi	r25, 0x01	; 1
    1d96:	0e 94 78 08 	call	0x10f0	; 0x10f0 <_Z16USART_ReciveWaitPcjb>
    1d9a:	2d b7       	in	r18, 0x3d	; 61
    1d9c:	3e b7       	in	r19, 0x3e	; 62
    1d9e:	26 5e       	subi	r18, 0xE6	; 230
    1da0:	3f 4f       	sbci	r19, 0xFF	; 255
    1da2:	0f b6       	in	r0, 0x3f	; 63
    1da4:	f8 94       	cli
    1da6:	3e bf       	out	0x3e, r19	; 62
    1da8:	0f be       	out	0x3f, r0	; 63
    1daa:	2d bf       	out	0x3d, r18	; 61
    1dac:	81 11       	cpse	r24, r1
    1dae:	04 c0       	rjmp	.+8      	; 0x1db8 <_Z10uploaddatav+0x132>
    1db0:	13 c0       	rjmp	.+38     	; 0x1dd8 <_Z10uploaddatav+0x152>
	if (USART_ReciveWait("CONNECT",3000))
	{USART_ClearRX();
	}
	else
	{
		USART_ClearRX();
    1db2:	0e 94 ca 08 	call	0x1194	; 0x1194 <_Z13USART_ClearRXv>
		return 0;
    1db6:	23 c0       	rjmp	.+70     	; 0x1dfe <_Z10uploaddatav+0x178>
	
	
	USART_TxString(lengthcal);
	if (USART_ReciveWait("OK",2000))
	{
		USART_ClearRX();
    1db8:	0e 94 ca 08 	call	0x1194	; 0x1194 <_Z13USART_ClearRXv>
	}
	
	

	
	USART_TxString(getreqvest);
    1dbc:	89 ee       	ldi	r24, 0xE9	; 233
    1dbe:	94 e0       	ldi	r25, 0x04	; 4
    1dc0:	0e 94 18 08 	call	0x1030	; 0x1030 <_Z14USART_TxStringPc>
	if (USART_ReciveWait("Insertion",2000))
    1dc4:	40 e0       	ldi	r20, 0x00	; 0
    1dc6:	60 ed       	ldi	r22, 0xD0	; 208
    1dc8:	77 e0       	ldi	r23, 0x07	; 7
    1dca:	82 ec       	ldi	r24, 0xC2	; 194
    1dcc:	93 e0       	ldi	r25, 0x03	; 3
    1dce:	0e 94 78 08 	call	0x10f0	; 0x10f0 <_Z16USART_ReciveWaitPcjb>
    1dd2:	88 23       	and	r24, r24
    1dd4:	91 f0       	breq	.+36     	; 0x1dfa <_Z10uploaddatav+0x174>
    1dd6:	03 c0       	rjmp	.+6      	; 0x1dde <_Z10uploaddatav+0x158>
	{
		USART_ClearRX();
	}
	else
	{
		USART_ClearRX();
    1dd8:	0e 94 ca 08 	call	0x1194	; 0x1194 <_Z13USART_ClearRXv>
		return 0;
    1ddc:	10 c0       	rjmp	.+32     	; 0x1dfe <_Z10uploaddatav+0x178>
    1dde:	3f ef       	ldi	r19, 0xFF	; 255
    1de0:	80 e7       	ldi	r24, 0x70	; 112
    1de2:	92 e0       	ldi	r25, 0x02	; 2
    1de4:	31 50       	subi	r19, 0x01	; 1
    1de6:	80 40       	sbci	r24, 0x00	; 0
    1de8:	90 40       	sbci	r25, 0x00	; 0
    1dea:	e1 f7       	brne	.-8      	; 0x1de4 <_Z10uploaddatav+0x15e>
    1dec:	00 c0       	rjmp	.+0      	; 0x1dee <_Z10uploaddatav+0x168>
    1dee:	00 00       	nop
	
	USART_TxString(getreqvest);
	if (USART_ReciveWait("Insertion",2000))
	{
		_delay_ms(100);
		USART_TxString("AT+CIPCLOSE=0");
    1df0:	8e ed       	ldi	r24, 0xDE	; 222
    1df2:	92 e0       	ldi	r25, 0x02	; 2
    1df4:	0e 94 18 08 	call	0x1030	; 0x1030 <_Z14USART_TxStringPc>
		USART_ClearRX();
		return 0;
	}

	
    1df8:	03 c0       	rjmp	.+6      	; 0x1e00 <_Z10uploaddatav+0x17a>
	}
	else
	{
		
		
		USART_ClearRX();
    1dfa:	0e 94 ca 08 	call	0x1194	; 0x1194 <_Z13USART_ClearRXv>
    1dfe:	80 e0       	ldi	r24, 0x00	; 0
		return 0;
	}

	
    1e00:	df 91       	pop	r29
    1e02:	cf 91       	pop	r28
    1e04:	08 95       	ret

00001e06 <main>:

uint16_t distance;
void distanceRead();

int main(void)
{	setjmp (mainstart);
    1e06:	cf 93       	push	r28
    1e08:	df 93       	push	r29
    1e0a:	cd b7       	in	r28, 0x3d	; 61
    1e0c:	de b7       	in	r29, 0x3e	; 62
    1e0e:	80 e3       	ldi	r24, 0x30	; 48
    1e10:	94 e0       	ldi	r25, 0x04	; 4
    1e12:	0e 94 d6 16 	call	0x2dac	; 0x2dac <setjmp>
	mainFunctionInit();
    1e16:	0e 94 97 0a 	call	0x152e	; 0x152e <_Z16mainFunctionInitv>
	if (!(PINB&0b00000001)){
    1e1a:	18 9b       	sbis	0x03, 0	; 3
		
		makeHost();
    1e1c:	0e 94 4a 0b 	call	0x1694	; 0x1694 <_Z8makeHostv>
	}
	if (!checkEsp())
    1e20:	0e 94 c4 0a 	call	0x1588	; 0x1588 <_Z8checkEspv>
    1e24:	81 11       	cpse	r24, r1
    1e26:	2b c0       	rjmp	.+86     	; 0x1e7e <main+0x78>
	{	
		oled_clear_screen();
    1e28:	0e 94 a1 05 	call	0xb42	; 0xb42 <_Z17oled_clear_screenv>
		oled_gotoxy(0,2);
    1e2c:	62 e0       	ldi	r22, 0x02	; 2
    1e2e:	80 e0       	ldi	r24, 0x00	; 0
    1e30:	0e 94 7c 05 	call	0xaf8	; 0xaf8 <_Z11oled_gotoxyhh>
    1e34:	10 92 b3 05 	sts	0x05B3, r1	; 0x8005b3 <_ZL9font_size>
		oled_font_size(0);
		oled_write("ESP not connected");
    1e38:	8a e1       	ldi	r24, 0x1A	; 26
    1e3a:	92 e0       	ldi	r25, 0x02	; 2
    1e3c:	9f 93       	push	r25
    1e3e:	8f 93       	push	r24
    1e40:	0e 94 dc 06 	call	0xdb8	; 0xdb8 <_Z12oled_write_PPKcz>
    1e44:	0f 90       	pop	r0
    1e46:	0f 90       	pop	r0
		oled_gotoxy(0,3);
    1e48:	63 e0       	ldi	r22, 0x03	; 3
    1e4a:	80 e0       	ldi	r24, 0x00	; 0
    1e4c:	0e 94 7c 05 	call	0xaf8	; 0xaf8 <_Z11oled_gotoxyhh>
		oled_write("Device Restarting. . .");
    1e50:	83 e0       	ldi	r24, 0x03	; 3
    1e52:	92 e0       	ldi	r25, 0x02	; 2
    1e54:	9f 93       	push	r25
    1e56:	8f 93       	push	r24
    1e58:	0e 94 dc 06 	call	0xdb8	; 0xdb8 <_Z12oled_write_PPKcz>
    1e5c:	0f 90       	pop	r0
    1e5e:	0f 90       	pop	r0
    1e60:	2f ef       	ldi	r18, 0xFF	; 255
    1e62:	84 e3       	ldi	r24, 0x34	; 52
    1e64:	9c e0       	ldi	r25, 0x0C	; 12
    1e66:	21 50       	subi	r18, 0x01	; 1
    1e68:	80 40       	sbci	r24, 0x00	; 0
    1e6a:	90 40       	sbci	r25, 0x00	; 0
    1e6c:	e1 f7       	brne	.-8      	; 0x1e66 <main+0x60>
    1e6e:	00 c0       	rjmp	.+0      	; 0x1e70 <main+0x6a>
    1e70:	00 00       	nop
		_delay_ms(500);
		longjmp (mainstart, 1);
    1e72:	61 e0       	ldi	r22, 0x01	; 1
    1e74:	70 e0       	ldi	r23, 0x00	; 0
    1e76:	80 e3       	ldi	r24, 0x30	; 48
    1e78:	94 e0       	ldi	r25, 0x04	; 4
    1e7a:	0e 94 f6 16 	call	0x2dec	; 0x2dec <longjmp>
	}
	else{
	oled_clear_screen();
    1e7e:	0e 94 a1 05 	call	0xb42	; 0xb42 <_Z17oled_clear_screenv>
	oled_gotoxy(0,2);
    1e82:	62 e0       	ldi	r22, 0x02	; 2
    1e84:	80 e0       	ldi	r24, 0x00	; 0
    1e86:	0e 94 7c 05 	call	0xaf8	; 0xaf8 <_Z11oled_gotoxyhh>
    1e8a:	10 92 b3 05 	sts	0x05B3, r1	; 0x8005b3 <_ZL9font_size>
	oled_font_size(0);
	oled_write("ESP OK");
    1e8e:	8c ef       	ldi	r24, 0xFC	; 252
    1e90:	91 e0       	ldi	r25, 0x01	; 1
    1e92:	9f 93       	push	r25
    1e94:	8f 93       	push	r24
    1e96:	0e 94 dc 06 	call	0xdb8	; 0xdb8 <_Z12oled_write_PPKcz>
    1e9a:	0f 90       	pop	r0
    1e9c:	0f 90       	pop	r0
	}
	//****************************
	if (!setupESP())
    1e9e:	0e 94 ef 0a 	call	0x15de	; 0x15de <_Z8setupESPv>
    1ea2:	81 11       	cpse	r24, r1
    1ea4:	06 c0       	rjmp	.+12     	; 0x1eb2 <main+0xac>
	{longjmp (mainstart, 1);
    1ea6:	61 e0       	ldi	r22, 0x01	; 1
    1ea8:	70 e0       	ldi	r23, 0x00	; 0
    1eaa:	80 e3       	ldi	r24, 0x30	; 48
    1eac:	94 e0       	ldi	r25, 0x04	; 4
    1eae:	0e 94 f6 16 	call	0x2dec	; 0x2dec <longjmp>
	}
	else{
	oled_clear_screen();
    1eb2:	0e 94 a1 05 	call	0xb42	; 0xb42 <_Z17oled_clear_screenv>
	oled_gotoxy(0,3);
    1eb6:	63 e0       	ldi	r22, 0x03	; 3
    1eb8:	80 e0       	ldi	r24, 0x00	; 0
    1eba:	0e 94 7c 05 	call	0xaf8	; 0xaf8 <_Z11oled_gotoxyhh>
    1ebe:	10 92 b3 05 	sts	0x05B3, r1	; 0x8005b3 <_ZL9font_size>
	oled_font_size(0);
	oled_write("Setup ESP");	
    1ec2:	82 ef       	ldi	r24, 0xF2	; 242
    1ec4:	91 e0       	ldi	r25, 0x01	; 1
    1ec6:	9f 93       	push	r25
    1ec8:	8f 93       	push	r24
    1eca:	0e 94 dc 06 	call	0xdb8	; 0xdb8 <_Z12oled_write_PPKcz>
    1ece:	0f 90       	pop	r0
    1ed0:	0f 90       	pop	r0
		
	}
	//***************************
	if (!checkRouter())
    1ed2:	0e 94 35 0b 	call	0x166a	; 0x166a <_Z11checkRouterv>
    1ed6:	81 11       	cpse	r24, r1
    1ed8:	1c c0       	rjmp	.+56     	; 0x1f12 <main+0x10c>
	{	
		oled_gotoxy(0,4);
    1eda:	64 e0       	ldi	r22, 0x04	; 4
    1edc:	0e 94 7c 05 	call	0xaf8	; 0xaf8 <_Z11oled_gotoxyhh>
    1ee0:	10 92 b3 05 	sts	0x05B3, r1	; 0x8005b3 <_ZL9font_size>
		oled_font_size(0);
		oled_write("Router Fail");
    1ee4:	86 ee       	ldi	r24, 0xE6	; 230
    1ee6:	91 e0       	ldi	r25, 0x01	; 1
    1ee8:	9f 93       	push	r25
    1eea:	8f 93       	push	r24
    1eec:	0e 94 dc 06 	call	0xdb8	; 0xdb8 <_Z12oled_write_PPKcz>
    1ef0:	0f 90       	pop	r0
    1ef2:	0f 90       	pop	r0
    1ef4:	2f ef       	ldi	r18, 0xFF	; 255
    1ef6:	84 e3       	ldi	r24, 0x34	; 52
    1ef8:	9c e0       	ldi	r25, 0x0C	; 12
    1efa:	21 50       	subi	r18, 0x01	; 1
    1efc:	80 40       	sbci	r24, 0x00	; 0
    1efe:	90 40       	sbci	r25, 0x00	; 0
    1f00:	e1 f7       	brne	.-8      	; 0x1efa <main+0xf4>
    1f02:	00 c0       	rjmp	.+0      	; 0x1f04 <main+0xfe>
    1f04:	00 00       	nop
		_delay_ms(500);
		longjmp (mainstart, 1);
    1f06:	61 e0       	ldi	r22, 0x01	; 1
    1f08:	70 e0       	ldi	r23, 0x00	; 0
    1f0a:	80 e3       	ldi	r24, 0x30	; 48
    1f0c:	94 e0       	ldi	r25, 0x04	; 4
    1f0e:	0e 94 f6 16 	call	0x2dec	; 0x2dec <longjmp>
		
	}
	else{
	oled_gotoxy(0,4);
    1f12:	64 e0       	ldi	r22, 0x04	; 4
    1f14:	80 e0       	ldi	r24, 0x00	; 0
    1f16:	0e 94 7c 05 	call	0xaf8	; 0xaf8 <_Z11oled_gotoxyhh>
    1f1a:	10 92 b3 05 	sts	0x05B3, r1	; 0x8005b3 <_ZL9font_size>
	oled_font_size(0);
	oled_write("Router Connected");	
    1f1e:	85 ed       	ldi	r24, 0xD5	; 213
    1f20:	91 e0       	ldi	r25, 0x01	; 1
    1f22:	9f 93       	push	r25
    1f24:	8f 93       	push	r24
    1f26:	0e 94 dc 06 	call	0xdb8	; 0xdb8 <_Z12oled_write_PPKcz>
    1f2a:	0f 90       	pop	r0
    1f2c:	0f 90       	pop	r0
    1f2e:	2f ef       	ldi	r18, 0xFF	; 255
    1f30:	84 e3       	ldi	r24, 0x34	; 52
    1f32:	9c e0       	ldi	r25, 0x0C	; 12
    1f34:	21 50       	subi	r18, 0x01	; 1
    1f36:	80 40       	sbci	r24, 0x00	; 0
    1f38:	90 40       	sbci	r25, 0x00	; 0
    1f3a:	e1 f7       	brne	.-8      	; 0x1f34 <main+0x12e>
    1f3c:	00 c0       	rjmp	.+0      	; 0x1f3e <main+0x138>
    1f3e:	00 00       	nop
	_delay_ms(500);
	}
	
	
	oled_clear_screen();
    1f40:	0e 94 a1 05 	call	0xb42	; 0xb42 <_Z17oled_clear_screenv>
	
	while(1){
		
	DTR_ReadValue();
	sprintf(lengthcal,"Humidity  %.1f%%",ReadHumidity);
    1f44:	0f 2e       	mov	r0, r31
    1f46:	fc ec       	ldi	r31, 0xCC	; 204
    1f48:	6f 2e       	mov	r6, r31
    1f4a:	f3 e0       	ldi	r31, 0x03	; 3
    1f4c:	7f 2e       	mov	r7, r31
    1f4e:	f0 2d       	mov	r31, r0
    1f50:	09 e9       	ldi	r16, 0x99	; 153
    1f52:	14 e0       	ldi	r17, 0x04	; 4
	oled_gotoxy(0,2);
	oled_write_str(lengthcal);
	sprintf(lengthcal,"Tempurat. %.1fC",ReadTemp);
    1f54:	0f 2e       	mov	r0, r31
    1f56:	fd ed       	ldi	r31, 0xDD	; 221
    1f58:	8f 2e       	mov	r8, r31
    1f5a:	f3 e0       	ldi	r31, 0x03	; 3
    1f5c:	9f 2e       	mov	r9, r31
    1f5e:	f0 2d       	mov	r31, r0
	oled_gotoxy(0,3);
	oled_write_str(lengthcal);
	
	ReadPH();
	sprintf(lengthcal,"PH value  %.1f",phValue);
    1f60:	0f 2e       	mov	r0, r31
    1f62:	fd ee       	ldi	r31, 0xED	; 237
    1f64:	af 2e       	mov	r10, r31
    1f66:	f3 e0       	ldi	r31, 0x03	; 3
    1f68:	bf 2e       	mov	r11, r31
    1f6a:	f0 2d       	mov	r31, r0
	sprintf(lengthcal,"%u",distance);
	oled_gotoxy(0,5);
	oled_write_str(lengthcal);*/
	
	ReadTubidity();
	sprintf(lengthcal,"Turbidity  %.1f",tubidity);
    1f6c:	0f 2e       	mov	r0, r31
    1f6e:	fc ef       	ldi	r31, 0xFC	; 252
    1f70:	cf 2e       	mov	r12, r31
    1f72:	f3 e0       	ldi	r31, 0x03	; 3
    1f74:	df 2e       	mov	r13, r31
    1f76:	f0 2d       	mov	r31, r0
	oled_gotoxy(0,6);
	oled_write_str(lengthcal);
	
	loopCount++;
	sprintf(lengthcal,"%d",loopCount);
    1f78:	0f 2e       	mov	r0, r31
    1f7a:	f6 e8       	ldi	r31, 0x86	; 134
    1f7c:	ef 2e       	mov	r14, r31
    1f7e:	f1 e0       	ldi	r31, 0x01	; 1
    1f80:	ff 2e       	mov	r15, r31
    1f82:	f0 2d       	mov	r31, r0
	
	oled_clear_screen();
	
	while(1){
		
	DTR_ReadValue();
    1f84:	0e 94 18 09 	call	0x1230	; 0x1230 <_Z13DTR_ReadValuev>
	sprintf(lengthcal,"Humidity  %.1f%%",ReadHumidity);
    1f88:	80 91 2f 04 	lds	r24, 0x042F	; 0x80042f <ReadHumidity+0x3>
    1f8c:	8f 93       	push	r24
    1f8e:	80 91 2e 04 	lds	r24, 0x042E	; 0x80042e <ReadHumidity+0x2>
    1f92:	8f 93       	push	r24
    1f94:	80 91 2d 04 	lds	r24, 0x042D	; 0x80042d <ReadHumidity+0x1>
    1f98:	8f 93       	push	r24
    1f9a:	80 91 2c 04 	lds	r24, 0x042C	; 0x80042c <ReadHumidity>
    1f9e:	8f 93       	push	r24
    1fa0:	7f 92       	push	r7
    1fa2:	6f 92       	push	r6
    1fa4:	1f 93       	push	r17
    1fa6:	0f 93       	push	r16
    1fa8:	0e 94 08 18 	call	0x3010	; 0x3010 <sprintf>
    1fac:	0f b6       	in	r0, 0x3f	; 63
    1fae:	f8 94       	cli
    1fb0:	de bf       	out	0x3e, r29	; 62
    1fb2:	0f be       	out	0x3f, r0	; 63
    1fb4:	cd bf       	out	0x3d, r28	; 61
	oled_gotoxy(0,2);
    1fb6:	62 e0       	ldi	r22, 0x02	; 2
    1fb8:	80 e0       	ldi	r24, 0x00	; 0
    1fba:	0e 94 7c 05 	call	0xaf8	; 0xaf8 <_Z11oled_gotoxyhh>
	oled_write_str(lengthcal);
    1fbe:	c8 01       	movw	r24, r16
    1fc0:	0e 94 cd 06 	call	0xd9a	; 0xd9a <_Z14oled_write_strPc>
	sprintf(lengthcal,"Tempurat. %.1fC",ReadTemp);
    1fc4:	80 91 2b 04 	lds	r24, 0x042B	; 0x80042b <ReadTemp+0x3>
    1fc8:	8f 93       	push	r24
    1fca:	80 91 2a 04 	lds	r24, 0x042A	; 0x80042a <ReadTemp+0x2>
    1fce:	8f 93       	push	r24
    1fd0:	80 91 29 04 	lds	r24, 0x0429	; 0x800429 <ReadTemp+0x1>
    1fd4:	8f 93       	push	r24
    1fd6:	80 91 28 04 	lds	r24, 0x0428	; 0x800428 <ReadTemp>
    1fda:	8f 93       	push	r24
    1fdc:	9f 92       	push	r9
    1fde:	8f 92       	push	r8
    1fe0:	1f 93       	push	r17
    1fe2:	0f 93       	push	r16
    1fe4:	0e 94 08 18 	call	0x3010	; 0x3010 <sprintf>
    1fe8:	0f b6       	in	r0, 0x3f	; 63
    1fea:	f8 94       	cli
    1fec:	de bf       	out	0x3e, r29	; 62
    1fee:	0f be       	out	0x3f, r0	; 63
    1ff0:	cd bf       	out	0x3d, r28	; 61
	oled_gotoxy(0,3);
    1ff2:	63 e0       	ldi	r22, 0x03	; 3
    1ff4:	80 e0       	ldi	r24, 0x00	; 0
    1ff6:	0e 94 7c 05 	call	0xaf8	; 0xaf8 <_Z11oled_gotoxyhh>
	oled_write_str(lengthcal);
    1ffa:	c8 01       	movw	r24, r16
    1ffc:	0e 94 cd 06 	call	0xd9a	; 0xd9a <_Z14oled_write_strPc>
	
	ReadPH();
    2000:	0e 94 01 0a 	call	0x1402	; 0x1402 <_Z6ReadPHv>
	sprintf(lengthcal,"PH value  %.1f",phValue);
    2004:	80 91 27 04 	lds	r24, 0x0427	; 0x800427 <phValue+0x3>
    2008:	8f 93       	push	r24
    200a:	80 91 26 04 	lds	r24, 0x0426	; 0x800426 <phValue+0x2>
    200e:	8f 93       	push	r24
    2010:	80 91 25 04 	lds	r24, 0x0425	; 0x800425 <phValue+0x1>
    2014:	8f 93       	push	r24
    2016:	80 91 24 04 	lds	r24, 0x0424	; 0x800424 <phValue>
    201a:	8f 93       	push	r24
    201c:	bf 92       	push	r11
    201e:	af 92       	push	r10
    2020:	1f 93       	push	r17
    2022:	0f 93       	push	r16
    2024:	0e 94 08 18 	call	0x3010	; 0x3010 <sprintf>
    2028:	0f b6       	in	r0, 0x3f	; 63
    202a:	f8 94       	cli
    202c:	de bf       	out	0x3e, r29	; 62
    202e:	0f be       	out	0x3f, r0	; 63
    2030:	cd bf       	out	0x3d, r28	; 61
	oled_gotoxy(0,4);
    2032:	64 e0       	ldi	r22, 0x04	; 4
    2034:	80 e0       	ldi	r24, 0x00	; 0
    2036:	0e 94 7c 05 	call	0xaf8	; 0xaf8 <_Z11oled_gotoxyhh>
	oled_write_str(lengthcal);
    203a:	c8 01       	movw	r24, r16
    203c:	0e 94 cd 06 	call	0xd9a	; 0xd9a <_Z14oled_write_strPc>
	/*distanceRead();
	sprintf(lengthcal,"%u",distance);
	oled_gotoxy(0,5);
	oled_write_str(lengthcal);*/
	
	ReadTubidity();
    2040:	0e 94 54 0a 	call	0x14a8	; 0x14a8 <_Z12ReadTubidityv>
	sprintf(lengthcal,"Turbidity  %.1f",tubidity);
    2044:	80 91 21 04 	lds	r24, 0x0421	; 0x800421 <tubidity+0x3>
    2048:	8f 93       	push	r24
    204a:	80 91 20 04 	lds	r24, 0x0420	; 0x800420 <tubidity+0x2>
    204e:	8f 93       	push	r24
    2050:	80 91 1f 04 	lds	r24, 0x041F	; 0x80041f <tubidity+0x1>
    2054:	8f 93       	push	r24
    2056:	80 91 1e 04 	lds	r24, 0x041E	; 0x80041e <tubidity>
    205a:	8f 93       	push	r24
    205c:	df 92       	push	r13
    205e:	cf 92       	push	r12
    2060:	1f 93       	push	r17
    2062:	0f 93       	push	r16
    2064:	0e 94 08 18 	call	0x3010	; 0x3010 <sprintf>
    2068:	0f b6       	in	r0, 0x3f	; 63
    206a:	f8 94       	cli
    206c:	de bf       	out	0x3e, r29	; 62
    206e:	0f be       	out	0x3f, r0	; 63
    2070:	cd bf       	out	0x3d, r28	; 61
	oled_gotoxy(0,6);
    2072:	66 e0       	ldi	r22, 0x06	; 6
    2074:	80 e0       	ldi	r24, 0x00	; 0
    2076:	0e 94 7c 05 	call	0xaf8	; 0xaf8 <_Z11oled_gotoxyhh>
	oled_write_str(lengthcal);
    207a:	c8 01       	movw	r24, r16
    207c:	0e 94 cd 06 	call	0xd9a	; 0xd9a <_Z14oled_write_strPc>
	
	loopCount++;
    2080:	80 91 47 04 	lds	r24, 0x0447	; 0x800447 <loopCount>
    2084:	90 91 48 04 	lds	r25, 0x0448	; 0x800448 <loopCount+0x1>
    2088:	01 96       	adiw	r24, 0x01	; 1
    208a:	90 93 48 04 	sts	0x0448, r25	; 0x800448 <loopCount+0x1>
    208e:	80 93 47 04 	sts	0x0447, r24	; 0x800447 <loopCount>
	sprintf(lengthcal,"%d",loopCount);
    2092:	9f 93       	push	r25
    2094:	8f 93       	push	r24
    2096:	ff 92       	push	r15
    2098:	ef 92       	push	r14
    209a:	1f 93       	push	r17
    209c:	0f 93       	push	r16
    209e:	0e 94 08 18 	call	0x3010	; 0x3010 <sprintf>
    20a2:	0f 90       	pop	r0
    20a4:	0f 90       	pop	r0
    20a6:	0f 90       	pop	r0
    20a8:	0f 90       	pop	r0
    20aa:	0f 90       	pop	r0
    20ac:	0f 90       	pop	r0
	oled_gotoxy(0,7);
    20ae:	67 e0       	ldi	r22, 0x07	; 7
    20b0:	80 e0       	ldi	r24, 0x00	; 0
    20b2:	0e 94 7c 05 	call	0xaf8	; 0xaf8 <_Z11oled_gotoxyhh>
	oled_write_str(lengthcal);
    20b6:	c8 01       	movw	r24, r16
    20b8:	0e 94 cd 06 	call	0xd9a	; 0xd9a <_Z14oled_write_strPc>
	uploaddata();
    20bc:	0e 94 43 0e 	call	0x1c86	; 0x1c86 <_Z10uploaddatav>
    20c0:	9f ef       	ldi	r25, 0xFF	; 255
    20c2:	23 ed       	ldi	r18, 0xD3	; 211
    20c4:	80 e3       	ldi	r24, 0x30	; 48
    20c6:	91 50       	subi	r25, 0x01	; 1
    20c8:	20 40       	sbci	r18, 0x00	; 0
    20ca:	80 40       	sbci	r24, 0x00	; 0
    20cc:	e1 f7       	brne	.-8      	; 0x20c6 <main+0x2c0>
    20ce:	00 c0       	rjmp	.+0      	; 0x20d0 <main+0x2ca>
    20d0:	00 00       	nop
    20d2:	58 cf       	rjmp	.-336    	; 0x1f84 <main+0x17e>

000020d4 <__subsf3>:
    20d4:	50 58       	subi	r21, 0x80	; 128

000020d6 <__addsf3>:
    20d6:	bb 27       	eor	r27, r27
    20d8:	aa 27       	eor	r26, r26
    20da:	0e 94 82 10 	call	0x2104	; 0x2104 <__addsf3x>
    20de:	0c 94 2b 11 	jmp	0x2256	; 0x2256 <__fp_round>
    20e2:	0e 94 1d 11 	call	0x223a	; 0x223a <__fp_pscA>
    20e6:	38 f0       	brcs	.+14     	; 0x20f6 <__addsf3+0x20>
    20e8:	0e 94 24 11 	call	0x2248	; 0x2248 <__fp_pscB>
    20ec:	20 f0       	brcs	.+8      	; 0x20f6 <__addsf3+0x20>
    20ee:	39 f4       	brne	.+14     	; 0x20fe <__addsf3+0x28>
    20f0:	9f 3f       	cpi	r25, 0xFF	; 255
    20f2:	19 f4       	brne	.+6      	; 0x20fa <__addsf3+0x24>
    20f4:	26 f4       	brtc	.+8      	; 0x20fe <__addsf3+0x28>
    20f6:	0c 94 1a 11 	jmp	0x2234	; 0x2234 <__fp_nan>
    20fa:	0e f4       	brtc	.+2      	; 0x20fe <__addsf3+0x28>
    20fc:	e0 95       	com	r30
    20fe:	e7 fb       	bst	r30, 7
    2100:	0c 94 14 11 	jmp	0x2228	; 0x2228 <__fp_inf>

00002104 <__addsf3x>:
    2104:	e9 2f       	mov	r30, r25
    2106:	0e 94 3c 11 	call	0x2278	; 0x2278 <__fp_split3>
    210a:	58 f3       	brcs	.-42     	; 0x20e2 <__addsf3+0xc>
    210c:	ba 17       	cp	r27, r26
    210e:	62 07       	cpc	r22, r18
    2110:	73 07       	cpc	r23, r19
    2112:	84 07       	cpc	r24, r20
    2114:	95 07       	cpc	r25, r21
    2116:	20 f0       	brcs	.+8      	; 0x2120 <__addsf3x+0x1c>
    2118:	79 f4       	brne	.+30     	; 0x2138 <__addsf3x+0x34>
    211a:	a6 f5       	brtc	.+104    	; 0x2184 <__addsf3x+0x80>
    211c:	0c 94 5e 11 	jmp	0x22bc	; 0x22bc <__fp_zero>
    2120:	0e f4       	brtc	.+2      	; 0x2124 <__addsf3x+0x20>
    2122:	e0 95       	com	r30
    2124:	0b 2e       	mov	r0, r27
    2126:	ba 2f       	mov	r27, r26
    2128:	a0 2d       	mov	r26, r0
    212a:	0b 01       	movw	r0, r22
    212c:	b9 01       	movw	r22, r18
    212e:	90 01       	movw	r18, r0
    2130:	0c 01       	movw	r0, r24
    2132:	ca 01       	movw	r24, r20
    2134:	a0 01       	movw	r20, r0
    2136:	11 24       	eor	r1, r1
    2138:	ff 27       	eor	r31, r31
    213a:	59 1b       	sub	r21, r25
    213c:	99 f0       	breq	.+38     	; 0x2164 <__addsf3x+0x60>
    213e:	59 3f       	cpi	r21, 0xF9	; 249
    2140:	50 f4       	brcc	.+20     	; 0x2156 <__addsf3x+0x52>
    2142:	50 3e       	cpi	r21, 0xE0	; 224
    2144:	68 f1       	brcs	.+90     	; 0x21a0 <__addsf3x+0x9c>
    2146:	1a 16       	cp	r1, r26
    2148:	f0 40       	sbci	r31, 0x00	; 0
    214a:	a2 2f       	mov	r26, r18
    214c:	23 2f       	mov	r18, r19
    214e:	34 2f       	mov	r19, r20
    2150:	44 27       	eor	r20, r20
    2152:	58 5f       	subi	r21, 0xF8	; 248
    2154:	f3 cf       	rjmp	.-26     	; 0x213c <__addsf3x+0x38>
    2156:	46 95       	lsr	r20
    2158:	37 95       	ror	r19
    215a:	27 95       	ror	r18
    215c:	a7 95       	ror	r26
    215e:	f0 40       	sbci	r31, 0x00	; 0
    2160:	53 95       	inc	r21
    2162:	c9 f7       	brne	.-14     	; 0x2156 <__addsf3x+0x52>
    2164:	7e f4       	brtc	.+30     	; 0x2184 <__addsf3x+0x80>
    2166:	1f 16       	cp	r1, r31
    2168:	ba 0b       	sbc	r27, r26
    216a:	62 0b       	sbc	r22, r18
    216c:	73 0b       	sbc	r23, r19
    216e:	84 0b       	sbc	r24, r20
    2170:	ba f0       	brmi	.+46     	; 0x21a0 <__addsf3x+0x9c>
    2172:	91 50       	subi	r25, 0x01	; 1
    2174:	a1 f0       	breq	.+40     	; 0x219e <__addsf3x+0x9a>
    2176:	ff 0f       	add	r31, r31
    2178:	bb 1f       	adc	r27, r27
    217a:	66 1f       	adc	r22, r22
    217c:	77 1f       	adc	r23, r23
    217e:	88 1f       	adc	r24, r24
    2180:	c2 f7       	brpl	.-16     	; 0x2172 <__addsf3x+0x6e>
    2182:	0e c0       	rjmp	.+28     	; 0x21a0 <__addsf3x+0x9c>
    2184:	ba 0f       	add	r27, r26
    2186:	62 1f       	adc	r22, r18
    2188:	73 1f       	adc	r23, r19
    218a:	84 1f       	adc	r24, r20
    218c:	48 f4       	brcc	.+18     	; 0x21a0 <__addsf3x+0x9c>
    218e:	87 95       	ror	r24
    2190:	77 95       	ror	r23
    2192:	67 95       	ror	r22
    2194:	b7 95       	ror	r27
    2196:	f7 95       	ror	r31
    2198:	9e 3f       	cpi	r25, 0xFE	; 254
    219a:	08 f0       	brcs	.+2      	; 0x219e <__addsf3x+0x9a>
    219c:	b0 cf       	rjmp	.-160    	; 0x20fe <__addsf3+0x28>
    219e:	93 95       	inc	r25
    21a0:	88 0f       	add	r24, r24
    21a2:	08 f0       	brcs	.+2      	; 0x21a6 <__addsf3x+0xa2>
    21a4:	99 27       	eor	r25, r25
    21a6:	ee 0f       	add	r30, r30
    21a8:	97 95       	ror	r25
    21aa:	87 95       	ror	r24
    21ac:	08 95       	ret

000021ae <__floatunsisf>:
    21ae:	e8 94       	clt
    21b0:	09 c0       	rjmp	.+18     	; 0x21c4 <__floatsisf+0x12>

000021b2 <__floatsisf>:
    21b2:	97 fb       	bst	r25, 7
    21b4:	3e f4       	brtc	.+14     	; 0x21c4 <__floatsisf+0x12>
    21b6:	90 95       	com	r25
    21b8:	80 95       	com	r24
    21ba:	70 95       	com	r23
    21bc:	61 95       	neg	r22
    21be:	7f 4f       	sbci	r23, 0xFF	; 255
    21c0:	8f 4f       	sbci	r24, 0xFF	; 255
    21c2:	9f 4f       	sbci	r25, 0xFF	; 255
    21c4:	99 23       	and	r25, r25
    21c6:	a9 f0       	breq	.+42     	; 0x21f2 <__floatsisf+0x40>
    21c8:	f9 2f       	mov	r31, r25
    21ca:	96 e9       	ldi	r25, 0x96	; 150
    21cc:	bb 27       	eor	r27, r27
    21ce:	93 95       	inc	r25
    21d0:	f6 95       	lsr	r31
    21d2:	87 95       	ror	r24
    21d4:	77 95       	ror	r23
    21d6:	67 95       	ror	r22
    21d8:	b7 95       	ror	r27
    21da:	f1 11       	cpse	r31, r1
    21dc:	f8 cf       	rjmp	.-16     	; 0x21ce <__floatsisf+0x1c>
    21de:	fa f4       	brpl	.+62     	; 0x221e <__floatsisf+0x6c>
    21e0:	bb 0f       	add	r27, r27
    21e2:	11 f4       	brne	.+4      	; 0x21e8 <__floatsisf+0x36>
    21e4:	60 ff       	sbrs	r22, 0
    21e6:	1b c0       	rjmp	.+54     	; 0x221e <__floatsisf+0x6c>
    21e8:	6f 5f       	subi	r22, 0xFF	; 255
    21ea:	7f 4f       	sbci	r23, 0xFF	; 255
    21ec:	8f 4f       	sbci	r24, 0xFF	; 255
    21ee:	9f 4f       	sbci	r25, 0xFF	; 255
    21f0:	16 c0       	rjmp	.+44     	; 0x221e <__floatsisf+0x6c>
    21f2:	88 23       	and	r24, r24
    21f4:	11 f0       	breq	.+4      	; 0x21fa <__floatsisf+0x48>
    21f6:	96 e9       	ldi	r25, 0x96	; 150
    21f8:	11 c0       	rjmp	.+34     	; 0x221c <__floatsisf+0x6a>
    21fa:	77 23       	and	r23, r23
    21fc:	21 f0       	breq	.+8      	; 0x2206 <__floatsisf+0x54>
    21fe:	9e e8       	ldi	r25, 0x8E	; 142
    2200:	87 2f       	mov	r24, r23
    2202:	76 2f       	mov	r23, r22
    2204:	05 c0       	rjmp	.+10     	; 0x2210 <__floatsisf+0x5e>
    2206:	66 23       	and	r22, r22
    2208:	71 f0       	breq	.+28     	; 0x2226 <__floatsisf+0x74>
    220a:	96 e8       	ldi	r25, 0x86	; 134
    220c:	86 2f       	mov	r24, r22
    220e:	70 e0       	ldi	r23, 0x00	; 0
    2210:	60 e0       	ldi	r22, 0x00	; 0
    2212:	2a f0       	brmi	.+10     	; 0x221e <__floatsisf+0x6c>
    2214:	9a 95       	dec	r25
    2216:	66 0f       	add	r22, r22
    2218:	77 1f       	adc	r23, r23
    221a:	88 1f       	adc	r24, r24
    221c:	da f7       	brpl	.-10     	; 0x2214 <__floatsisf+0x62>
    221e:	88 0f       	add	r24, r24
    2220:	96 95       	lsr	r25
    2222:	87 95       	ror	r24
    2224:	97 f9       	bld	r25, 7
    2226:	08 95       	ret

00002228 <__fp_inf>:
    2228:	97 f9       	bld	r25, 7
    222a:	9f 67       	ori	r25, 0x7F	; 127
    222c:	80 e8       	ldi	r24, 0x80	; 128
    222e:	70 e0       	ldi	r23, 0x00	; 0
    2230:	60 e0       	ldi	r22, 0x00	; 0
    2232:	08 95       	ret

00002234 <__fp_nan>:
    2234:	9f ef       	ldi	r25, 0xFF	; 255
    2236:	80 ec       	ldi	r24, 0xC0	; 192
    2238:	08 95       	ret

0000223a <__fp_pscA>:
    223a:	00 24       	eor	r0, r0
    223c:	0a 94       	dec	r0
    223e:	16 16       	cp	r1, r22
    2240:	17 06       	cpc	r1, r23
    2242:	18 06       	cpc	r1, r24
    2244:	09 06       	cpc	r0, r25
    2246:	08 95       	ret

00002248 <__fp_pscB>:
    2248:	00 24       	eor	r0, r0
    224a:	0a 94       	dec	r0
    224c:	12 16       	cp	r1, r18
    224e:	13 06       	cpc	r1, r19
    2250:	14 06       	cpc	r1, r20
    2252:	05 06       	cpc	r0, r21
    2254:	08 95       	ret

00002256 <__fp_round>:
    2256:	09 2e       	mov	r0, r25
    2258:	03 94       	inc	r0
    225a:	00 0c       	add	r0, r0
    225c:	11 f4       	brne	.+4      	; 0x2262 <__fp_round+0xc>
    225e:	88 23       	and	r24, r24
    2260:	52 f0       	brmi	.+20     	; 0x2276 <__fp_round+0x20>
    2262:	bb 0f       	add	r27, r27
    2264:	40 f4       	brcc	.+16     	; 0x2276 <__fp_round+0x20>
    2266:	bf 2b       	or	r27, r31
    2268:	11 f4       	brne	.+4      	; 0x226e <__fp_round+0x18>
    226a:	60 ff       	sbrs	r22, 0
    226c:	04 c0       	rjmp	.+8      	; 0x2276 <__fp_round+0x20>
    226e:	6f 5f       	subi	r22, 0xFF	; 255
    2270:	7f 4f       	sbci	r23, 0xFF	; 255
    2272:	8f 4f       	sbci	r24, 0xFF	; 255
    2274:	9f 4f       	sbci	r25, 0xFF	; 255
    2276:	08 95       	ret

00002278 <__fp_split3>:
    2278:	57 fd       	sbrc	r21, 7
    227a:	90 58       	subi	r25, 0x80	; 128
    227c:	44 0f       	add	r20, r20
    227e:	55 1f       	adc	r21, r21
    2280:	59 f0       	breq	.+22     	; 0x2298 <__fp_splitA+0x10>
    2282:	5f 3f       	cpi	r21, 0xFF	; 255
    2284:	71 f0       	breq	.+28     	; 0x22a2 <__fp_splitA+0x1a>
    2286:	47 95       	ror	r20

00002288 <__fp_splitA>:
    2288:	88 0f       	add	r24, r24
    228a:	97 fb       	bst	r25, 7
    228c:	99 1f       	adc	r25, r25
    228e:	61 f0       	breq	.+24     	; 0x22a8 <__fp_splitA+0x20>
    2290:	9f 3f       	cpi	r25, 0xFF	; 255
    2292:	79 f0       	breq	.+30     	; 0x22b2 <__fp_splitA+0x2a>
    2294:	87 95       	ror	r24
    2296:	08 95       	ret
    2298:	12 16       	cp	r1, r18
    229a:	13 06       	cpc	r1, r19
    229c:	14 06       	cpc	r1, r20
    229e:	55 1f       	adc	r21, r21
    22a0:	f2 cf       	rjmp	.-28     	; 0x2286 <__fp_split3+0xe>
    22a2:	46 95       	lsr	r20
    22a4:	f1 df       	rcall	.-30     	; 0x2288 <__fp_splitA>
    22a6:	08 c0       	rjmp	.+16     	; 0x22b8 <__fp_splitA+0x30>
    22a8:	16 16       	cp	r1, r22
    22aa:	17 06       	cpc	r1, r23
    22ac:	18 06       	cpc	r1, r24
    22ae:	99 1f       	adc	r25, r25
    22b0:	f1 cf       	rjmp	.-30     	; 0x2294 <__fp_splitA+0xc>
    22b2:	86 95       	lsr	r24
    22b4:	71 05       	cpc	r23, r1
    22b6:	61 05       	cpc	r22, r1
    22b8:	08 94       	sec
    22ba:	08 95       	ret

000022bc <__fp_zero>:
    22bc:	e8 94       	clt

000022be <__fp_szero>:
    22be:	bb 27       	eor	r27, r27
    22c0:	66 27       	eor	r22, r22
    22c2:	77 27       	eor	r23, r23
    22c4:	cb 01       	movw	r24, r22
    22c6:	97 f9       	bld	r25, 7
    22c8:	08 95       	ret

000022ca <__gesf2>:
    22ca:	0e 94 d7 11 	call	0x23ae	; 0x23ae <__fp_cmp>
    22ce:	08 f4       	brcc	.+2      	; 0x22d2 <__gesf2+0x8>
    22d0:	8f ef       	ldi	r24, 0xFF	; 255
    22d2:	08 95       	ret

000022d4 <__mulsf3>:
    22d4:	0e 94 7d 11 	call	0x22fa	; 0x22fa <__mulsf3x>
    22d8:	0c 94 2b 11 	jmp	0x2256	; 0x2256 <__fp_round>
    22dc:	0e 94 1d 11 	call	0x223a	; 0x223a <__fp_pscA>
    22e0:	38 f0       	brcs	.+14     	; 0x22f0 <__mulsf3+0x1c>
    22e2:	0e 94 24 11 	call	0x2248	; 0x2248 <__fp_pscB>
    22e6:	20 f0       	brcs	.+8      	; 0x22f0 <__mulsf3+0x1c>
    22e8:	95 23       	and	r25, r21
    22ea:	11 f0       	breq	.+4      	; 0x22f0 <__mulsf3+0x1c>
    22ec:	0c 94 14 11 	jmp	0x2228	; 0x2228 <__fp_inf>
    22f0:	0c 94 1a 11 	jmp	0x2234	; 0x2234 <__fp_nan>
    22f4:	11 24       	eor	r1, r1
    22f6:	0c 94 5f 11 	jmp	0x22be	; 0x22be <__fp_szero>

000022fa <__mulsf3x>:
    22fa:	0e 94 3c 11 	call	0x2278	; 0x2278 <__fp_split3>
    22fe:	70 f3       	brcs	.-36     	; 0x22dc <__mulsf3+0x8>

00002300 <__mulsf3_pse>:
    2300:	95 9f       	mul	r25, r21
    2302:	c1 f3       	breq	.-16     	; 0x22f4 <__mulsf3+0x20>
    2304:	95 0f       	add	r25, r21
    2306:	50 e0       	ldi	r21, 0x00	; 0
    2308:	55 1f       	adc	r21, r21
    230a:	62 9f       	mul	r22, r18
    230c:	f0 01       	movw	r30, r0
    230e:	72 9f       	mul	r23, r18
    2310:	bb 27       	eor	r27, r27
    2312:	f0 0d       	add	r31, r0
    2314:	b1 1d       	adc	r27, r1
    2316:	63 9f       	mul	r22, r19
    2318:	aa 27       	eor	r26, r26
    231a:	f0 0d       	add	r31, r0
    231c:	b1 1d       	adc	r27, r1
    231e:	aa 1f       	adc	r26, r26
    2320:	64 9f       	mul	r22, r20
    2322:	66 27       	eor	r22, r22
    2324:	b0 0d       	add	r27, r0
    2326:	a1 1d       	adc	r26, r1
    2328:	66 1f       	adc	r22, r22
    232a:	82 9f       	mul	r24, r18
    232c:	22 27       	eor	r18, r18
    232e:	b0 0d       	add	r27, r0
    2330:	a1 1d       	adc	r26, r1
    2332:	62 1f       	adc	r22, r18
    2334:	73 9f       	mul	r23, r19
    2336:	b0 0d       	add	r27, r0
    2338:	a1 1d       	adc	r26, r1
    233a:	62 1f       	adc	r22, r18
    233c:	83 9f       	mul	r24, r19
    233e:	a0 0d       	add	r26, r0
    2340:	61 1d       	adc	r22, r1
    2342:	22 1f       	adc	r18, r18
    2344:	74 9f       	mul	r23, r20
    2346:	33 27       	eor	r19, r19
    2348:	a0 0d       	add	r26, r0
    234a:	61 1d       	adc	r22, r1
    234c:	23 1f       	adc	r18, r19
    234e:	84 9f       	mul	r24, r20
    2350:	60 0d       	add	r22, r0
    2352:	21 1d       	adc	r18, r1
    2354:	82 2f       	mov	r24, r18
    2356:	76 2f       	mov	r23, r22
    2358:	6a 2f       	mov	r22, r26
    235a:	11 24       	eor	r1, r1
    235c:	9f 57       	subi	r25, 0x7F	; 127
    235e:	50 40       	sbci	r21, 0x00	; 0
    2360:	9a f0       	brmi	.+38     	; 0x2388 <__mulsf3_pse+0x88>
    2362:	f1 f0       	breq	.+60     	; 0x23a0 <__mulsf3_pse+0xa0>
    2364:	88 23       	and	r24, r24
    2366:	4a f0       	brmi	.+18     	; 0x237a <__mulsf3_pse+0x7a>
    2368:	ee 0f       	add	r30, r30
    236a:	ff 1f       	adc	r31, r31
    236c:	bb 1f       	adc	r27, r27
    236e:	66 1f       	adc	r22, r22
    2370:	77 1f       	adc	r23, r23
    2372:	88 1f       	adc	r24, r24
    2374:	91 50       	subi	r25, 0x01	; 1
    2376:	50 40       	sbci	r21, 0x00	; 0
    2378:	a9 f7       	brne	.-22     	; 0x2364 <__mulsf3_pse+0x64>
    237a:	9e 3f       	cpi	r25, 0xFE	; 254
    237c:	51 05       	cpc	r21, r1
    237e:	80 f0       	brcs	.+32     	; 0x23a0 <__mulsf3_pse+0xa0>
    2380:	0c 94 14 11 	jmp	0x2228	; 0x2228 <__fp_inf>
    2384:	0c 94 5f 11 	jmp	0x22be	; 0x22be <__fp_szero>
    2388:	5f 3f       	cpi	r21, 0xFF	; 255
    238a:	e4 f3       	brlt	.-8      	; 0x2384 <__mulsf3_pse+0x84>
    238c:	98 3e       	cpi	r25, 0xE8	; 232
    238e:	d4 f3       	brlt	.-12     	; 0x2384 <__mulsf3_pse+0x84>
    2390:	86 95       	lsr	r24
    2392:	77 95       	ror	r23
    2394:	67 95       	ror	r22
    2396:	b7 95       	ror	r27
    2398:	f7 95       	ror	r31
    239a:	e7 95       	ror	r30
    239c:	9f 5f       	subi	r25, 0xFF	; 255
    239e:	c1 f7       	brne	.-16     	; 0x2390 <__mulsf3_pse+0x90>
    23a0:	fe 2b       	or	r31, r30
    23a2:	88 0f       	add	r24, r24
    23a4:	91 1d       	adc	r25, r1
    23a6:	96 95       	lsr	r25
    23a8:	87 95       	ror	r24
    23aa:	97 f9       	bld	r25, 7
    23ac:	08 95       	ret

000023ae <__fp_cmp>:
    23ae:	99 0f       	add	r25, r25
    23b0:	00 08       	sbc	r0, r0
    23b2:	55 0f       	add	r21, r21
    23b4:	aa 0b       	sbc	r26, r26
    23b6:	e0 e8       	ldi	r30, 0x80	; 128
    23b8:	fe ef       	ldi	r31, 0xFE	; 254
    23ba:	16 16       	cp	r1, r22
    23bc:	17 06       	cpc	r1, r23
    23be:	e8 07       	cpc	r30, r24
    23c0:	f9 07       	cpc	r31, r25
    23c2:	c0 f0       	brcs	.+48     	; 0x23f4 <__fp_cmp+0x46>
    23c4:	12 16       	cp	r1, r18
    23c6:	13 06       	cpc	r1, r19
    23c8:	e4 07       	cpc	r30, r20
    23ca:	f5 07       	cpc	r31, r21
    23cc:	98 f0       	brcs	.+38     	; 0x23f4 <__fp_cmp+0x46>
    23ce:	62 1b       	sub	r22, r18
    23d0:	73 0b       	sbc	r23, r19
    23d2:	84 0b       	sbc	r24, r20
    23d4:	95 0b       	sbc	r25, r21
    23d6:	39 f4       	brne	.+14     	; 0x23e6 <__fp_cmp+0x38>
    23d8:	0a 26       	eor	r0, r26
    23da:	61 f0       	breq	.+24     	; 0x23f4 <__fp_cmp+0x46>
    23dc:	23 2b       	or	r18, r19
    23de:	24 2b       	or	r18, r20
    23e0:	25 2b       	or	r18, r21
    23e2:	21 f4       	brne	.+8      	; 0x23ec <__fp_cmp+0x3e>
    23e4:	08 95       	ret
    23e6:	0a 26       	eor	r0, r26
    23e8:	09 f4       	brne	.+2      	; 0x23ec <__fp_cmp+0x3e>
    23ea:	a1 40       	sbci	r26, 0x01	; 1
    23ec:	a6 95       	lsr	r26
    23ee:	8f ef       	ldi	r24, 0xFF	; 255
    23f0:	81 1d       	adc	r24, r1
    23f2:	81 1d       	adc	r24, r1
    23f4:	08 95       	ret

000023f6 <vfprintf>:
    23f6:	a0 e1       	ldi	r26, 0x10	; 16
    23f8:	b0 e0       	ldi	r27, 0x00	; 0
    23fa:	e1 e0       	ldi	r30, 0x01	; 1
    23fc:	f2 e1       	ldi	r31, 0x12	; 18
    23fe:	0c 94 a9 15 	jmp	0x2b52	; 0x2b52 <__prologue_saves__>
    2402:	7c 01       	movw	r14, r24
    2404:	1b 01       	movw	r2, r22
    2406:	6a 01       	movw	r12, r20
    2408:	fc 01       	movw	r30, r24
    240a:	17 82       	std	Z+7, r1	; 0x07
    240c:	16 82       	std	Z+6, r1	; 0x06
    240e:	83 81       	ldd	r24, Z+3	; 0x03
    2410:	81 ff       	sbrs	r24, 1
    2412:	44 c3       	rjmp	.+1672   	; 0x2a9c <vfprintf+0x6a6>
    2414:	9e 01       	movw	r18, r28
    2416:	2f 5f       	subi	r18, 0xFF	; 255
    2418:	3f 4f       	sbci	r19, 0xFF	; 255
    241a:	39 01       	movw	r6, r18
    241c:	f7 01       	movw	r30, r14
    241e:	93 81       	ldd	r25, Z+3	; 0x03
    2420:	f1 01       	movw	r30, r2
    2422:	93 fd       	sbrc	r25, 3
    2424:	85 91       	lpm	r24, Z+
    2426:	93 ff       	sbrs	r25, 3
    2428:	81 91       	ld	r24, Z+
    242a:	1f 01       	movw	r2, r30
    242c:	88 23       	and	r24, r24
    242e:	09 f4       	brne	.+2      	; 0x2432 <vfprintf+0x3c>
    2430:	31 c3       	rjmp	.+1634   	; 0x2a94 <vfprintf+0x69e>
    2432:	85 32       	cpi	r24, 0x25	; 37
    2434:	39 f4       	brne	.+14     	; 0x2444 <vfprintf+0x4e>
    2436:	93 fd       	sbrc	r25, 3
    2438:	85 91       	lpm	r24, Z+
    243a:	93 ff       	sbrs	r25, 3
    243c:	81 91       	ld	r24, Z+
    243e:	1f 01       	movw	r2, r30
    2440:	85 32       	cpi	r24, 0x25	; 37
    2442:	39 f4       	brne	.+14     	; 0x2452 <vfprintf+0x5c>
    2444:	b7 01       	movw	r22, r14
    2446:	90 e0       	ldi	r25, 0x00	; 0
    2448:	0e 94 cc 17 	call	0x2f98	; 0x2f98 <fputc>
    244c:	56 01       	movw	r10, r12
    244e:	65 01       	movw	r12, r10
    2450:	e5 cf       	rjmp	.-54     	; 0x241c <vfprintf+0x26>
    2452:	10 e0       	ldi	r17, 0x00	; 0
    2454:	51 2c       	mov	r5, r1
    2456:	91 2c       	mov	r9, r1
    2458:	ff e1       	ldi	r31, 0x1F	; 31
    245a:	f9 15       	cp	r31, r9
    245c:	d8 f0       	brcs	.+54     	; 0x2494 <vfprintf+0x9e>
    245e:	8b 32       	cpi	r24, 0x2B	; 43
    2460:	79 f0       	breq	.+30     	; 0x2480 <vfprintf+0x8a>
    2462:	38 f4       	brcc	.+14     	; 0x2472 <vfprintf+0x7c>
    2464:	80 32       	cpi	r24, 0x20	; 32
    2466:	79 f0       	breq	.+30     	; 0x2486 <vfprintf+0x90>
    2468:	83 32       	cpi	r24, 0x23	; 35
    246a:	a1 f4       	brne	.+40     	; 0x2494 <vfprintf+0x9e>
    246c:	f9 2d       	mov	r31, r9
    246e:	f0 61       	ori	r31, 0x10	; 16
    2470:	2e c0       	rjmp	.+92     	; 0x24ce <vfprintf+0xd8>
    2472:	8d 32       	cpi	r24, 0x2D	; 45
    2474:	61 f0       	breq	.+24     	; 0x248e <vfprintf+0x98>
    2476:	80 33       	cpi	r24, 0x30	; 48
    2478:	69 f4       	brne	.+26     	; 0x2494 <vfprintf+0x9e>
    247a:	29 2d       	mov	r18, r9
    247c:	21 60       	ori	r18, 0x01	; 1
    247e:	2d c0       	rjmp	.+90     	; 0x24da <vfprintf+0xe4>
    2480:	39 2d       	mov	r19, r9
    2482:	32 60       	ori	r19, 0x02	; 2
    2484:	93 2e       	mov	r9, r19
    2486:	89 2d       	mov	r24, r9
    2488:	84 60       	ori	r24, 0x04	; 4
    248a:	98 2e       	mov	r9, r24
    248c:	2a c0       	rjmp	.+84     	; 0x24e2 <vfprintf+0xec>
    248e:	e9 2d       	mov	r30, r9
    2490:	e8 60       	ori	r30, 0x08	; 8
    2492:	15 c0       	rjmp	.+42     	; 0x24be <vfprintf+0xc8>
    2494:	97 fc       	sbrc	r9, 7
    2496:	2d c0       	rjmp	.+90     	; 0x24f2 <vfprintf+0xfc>
    2498:	20 ed       	ldi	r18, 0xD0	; 208
    249a:	28 0f       	add	r18, r24
    249c:	2a 30       	cpi	r18, 0x0A	; 10
    249e:	88 f4       	brcc	.+34     	; 0x24c2 <vfprintf+0xcc>
    24a0:	96 fe       	sbrs	r9, 6
    24a2:	06 c0       	rjmp	.+12     	; 0x24b0 <vfprintf+0xba>
    24a4:	3a e0       	ldi	r19, 0x0A	; 10
    24a6:	13 9f       	mul	r17, r19
    24a8:	20 0d       	add	r18, r0
    24aa:	11 24       	eor	r1, r1
    24ac:	12 2f       	mov	r17, r18
    24ae:	19 c0       	rjmp	.+50     	; 0x24e2 <vfprintf+0xec>
    24b0:	8a e0       	ldi	r24, 0x0A	; 10
    24b2:	58 9e       	mul	r5, r24
    24b4:	20 0d       	add	r18, r0
    24b6:	11 24       	eor	r1, r1
    24b8:	52 2e       	mov	r5, r18
    24ba:	e9 2d       	mov	r30, r9
    24bc:	e0 62       	ori	r30, 0x20	; 32
    24be:	9e 2e       	mov	r9, r30
    24c0:	10 c0       	rjmp	.+32     	; 0x24e2 <vfprintf+0xec>
    24c2:	8e 32       	cpi	r24, 0x2E	; 46
    24c4:	31 f4       	brne	.+12     	; 0x24d2 <vfprintf+0xdc>
    24c6:	96 fc       	sbrc	r9, 6
    24c8:	e5 c2       	rjmp	.+1482   	; 0x2a94 <vfprintf+0x69e>
    24ca:	f9 2d       	mov	r31, r9
    24cc:	f0 64       	ori	r31, 0x40	; 64
    24ce:	9f 2e       	mov	r9, r31
    24d0:	08 c0       	rjmp	.+16     	; 0x24e2 <vfprintf+0xec>
    24d2:	8c 36       	cpi	r24, 0x6C	; 108
    24d4:	21 f4       	brne	.+8      	; 0x24de <vfprintf+0xe8>
    24d6:	29 2d       	mov	r18, r9
    24d8:	20 68       	ori	r18, 0x80	; 128
    24da:	92 2e       	mov	r9, r18
    24dc:	02 c0       	rjmp	.+4      	; 0x24e2 <vfprintf+0xec>
    24de:	88 36       	cpi	r24, 0x68	; 104
    24e0:	41 f4       	brne	.+16     	; 0x24f2 <vfprintf+0xfc>
    24e2:	f1 01       	movw	r30, r2
    24e4:	93 fd       	sbrc	r25, 3
    24e6:	85 91       	lpm	r24, Z+
    24e8:	93 ff       	sbrs	r25, 3
    24ea:	81 91       	ld	r24, Z+
    24ec:	1f 01       	movw	r2, r30
    24ee:	81 11       	cpse	r24, r1
    24f0:	b3 cf       	rjmp	.-154    	; 0x2458 <vfprintf+0x62>
    24f2:	9b eb       	ldi	r25, 0xBB	; 187
    24f4:	98 0f       	add	r25, r24
    24f6:	93 30       	cpi	r25, 0x03	; 3
    24f8:	20 f4       	brcc	.+8      	; 0x2502 <vfprintf+0x10c>
    24fa:	99 2d       	mov	r25, r9
    24fc:	90 61       	ori	r25, 0x10	; 16
    24fe:	80 5e       	subi	r24, 0xE0	; 224
    2500:	07 c0       	rjmp	.+14     	; 0x2510 <vfprintf+0x11a>
    2502:	9b e9       	ldi	r25, 0x9B	; 155
    2504:	98 0f       	add	r25, r24
    2506:	93 30       	cpi	r25, 0x03	; 3
    2508:	08 f0       	brcs	.+2      	; 0x250c <vfprintf+0x116>
    250a:	66 c1       	rjmp	.+716    	; 0x27d8 <vfprintf+0x3e2>
    250c:	99 2d       	mov	r25, r9
    250e:	9f 7e       	andi	r25, 0xEF	; 239
    2510:	96 ff       	sbrs	r25, 6
    2512:	16 e0       	ldi	r17, 0x06	; 6
    2514:	9f 73       	andi	r25, 0x3F	; 63
    2516:	99 2e       	mov	r9, r25
    2518:	85 36       	cpi	r24, 0x65	; 101
    251a:	19 f4       	brne	.+6      	; 0x2522 <vfprintf+0x12c>
    251c:	90 64       	ori	r25, 0x40	; 64
    251e:	99 2e       	mov	r9, r25
    2520:	08 c0       	rjmp	.+16     	; 0x2532 <vfprintf+0x13c>
    2522:	86 36       	cpi	r24, 0x66	; 102
    2524:	21 f4       	brne	.+8      	; 0x252e <vfprintf+0x138>
    2526:	39 2f       	mov	r19, r25
    2528:	30 68       	ori	r19, 0x80	; 128
    252a:	93 2e       	mov	r9, r19
    252c:	02 c0       	rjmp	.+4      	; 0x2532 <vfprintf+0x13c>
    252e:	11 11       	cpse	r17, r1
    2530:	11 50       	subi	r17, 0x01	; 1
    2532:	97 fe       	sbrs	r9, 7
    2534:	07 c0       	rjmp	.+14     	; 0x2544 <vfprintf+0x14e>
    2536:	1c 33       	cpi	r17, 0x3C	; 60
    2538:	50 f4       	brcc	.+20     	; 0x254e <vfprintf+0x158>
    253a:	44 24       	eor	r4, r4
    253c:	43 94       	inc	r4
    253e:	41 0e       	add	r4, r17
    2540:	27 e0       	ldi	r18, 0x07	; 7
    2542:	0b c0       	rjmp	.+22     	; 0x255a <vfprintf+0x164>
    2544:	18 30       	cpi	r17, 0x08	; 8
    2546:	38 f0       	brcs	.+14     	; 0x2556 <vfprintf+0x160>
    2548:	27 e0       	ldi	r18, 0x07	; 7
    254a:	17 e0       	ldi	r17, 0x07	; 7
    254c:	05 c0       	rjmp	.+10     	; 0x2558 <vfprintf+0x162>
    254e:	27 e0       	ldi	r18, 0x07	; 7
    2550:	9c e3       	ldi	r25, 0x3C	; 60
    2552:	49 2e       	mov	r4, r25
    2554:	02 c0       	rjmp	.+4      	; 0x255a <vfprintf+0x164>
    2556:	21 2f       	mov	r18, r17
    2558:	41 2c       	mov	r4, r1
    255a:	56 01       	movw	r10, r12
    255c:	84 e0       	ldi	r24, 0x04	; 4
    255e:	a8 0e       	add	r10, r24
    2560:	b1 1c       	adc	r11, r1
    2562:	f6 01       	movw	r30, r12
    2564:	60 81       	ld	r22, Z
    2566:	71 81       	ldd	r23, Z+1	; 0x01
    2568:	82 81       	ldd	r24, Z+2	; 0x02
    256a:	93 81       	ldd	r25, Z+3	; 0x03
    256c:	04 2d       	mov	r16, r4
    256e:	a3 01       	movw	r20, r6
    2570:	0e 94 fe 15 	call	0x2bfc	; 0x2bfc <__ftoa_engine>
    2574:	6c 01       	movw	r12, r24
    2576:	f9 81       	ldd	r31, Y+1	; 0x01
    2578:	fc 87       	std	Y+12, r31	; 0x0c
    257a:	f0 ff       	sbrs	r31, 0
    257c:	02 c0       	rjmp	.+4      	; 0x2582 <vfprintf+0x18c>
    257e:	f3 ff       	sbrs	r31, 3
    2580:	06 c0       	rjmp	.+12     	; 0x258e <vfprintf+0x198>
    2582:	91 fc       	sbrc	r9, 1
    2584:	06 c0       	rjmp	.+12     	; 0x2592 <vfprintf+0x19c>
    2586:	92 fe       	sbrs	r9, 2
    2588:	06 c0       	rjmp	.+12     	; 0x2596 <vfprintf+0x1a0>
    258a:	00 e2       	ldi	r16, 0x20	; 32
    258c:	05 c0       	rjmp	.+10     	; 0x2598 <vfprintf+0x1a2>
    258e:	0d e2       	ldi	r16, 0x2D	; 45
    2590:	03 c0       	rjmp	.+6      	; 0x2598 <vfprintf+0x1a2>
    2592:	0b e2       	ldi	r16, 0x2B	; 43
    2594:	01 c0       	rjmp	.+2      	; 0x2598 <vfprintf+0x1a2>
    2596:	00 e0       	ldi	r16, 0x00	; 0
    2598:	8c 85       	ldd	r24, Y+12	; 0x0c
    259a:	8c 70       	andi	r24, 0x0C	; 12
    259c:	19 f0       	breq	.+6      	; 0x25a4 <vfprintf+0x1ae>
    259e:	01 11       	cpse	r16, r1
    25a0:	5a c2       	rjmp	.+1204   	; 0x2a56 <vfprintf+0x660>
    25a2:	9b c2       	rjmp	.+1334   	; 0x2ada <vfprintf+0x6e4>
    25a4:	97 fe       	sbrs	r9, 7
    25a6:	10 c0       	rjmp	.+32     	; 0x25c8 <vfprintf+0x1d2>
    25a8:	4c 0c       	add	r4, r12
    25aa:	fc 85       	ldd	r31, Y+12	; 0x0c
    25ac:	f4 ff       	sbrs	r31, 4
    25ae:	04 c0       	rjmp	.+8      	; 0x25b8 <vfprintf+0x1c2>
    25b0:	8a 81       	ldd	r24, Y+2	; 0x02
    25b2:	81 33       	cpi	r24, 0x31	; 49
    25b4:	09 f4       	brne	.+2      	; 0x25b8 <vfprintf+0x1c2>
    25b6:	4a 94       	dec	r4
    25b8:	14 14       	cp	r1, r4
    25ba:	74 f5       	brge	.+92     	; 0x2618 <vfprintf+0x222>
    25bc:	28 e0       	ldi	r18, 0x08	; 8
    25be:	24 15       	cp	r18, r4
    25c0:	78 f5       	brcc	.+94     	; 0x2620 <vfprintf+0x22a>
    25c2:	88 e0       	ldi	r24, 0x08	; 8
    25c4:	48 2e       	mov	r4, r24
    25c6:	2c c0       	rjmp	.+88     	; 0x2620 <vfprintf+0x22a>
    25c8:	96 fc       	sbrc	r9, 6
    25ca:	2a c0       	rjmp	.+84     	; 0x2620 <vfprintf+0x22a>
    25cc:	81 2f       	mov	r24, r17
    25ce:	90 e0       	ldi	r25, 0x00	; 0
    25d0:	8c 15       	cp	r24, r12
    25d2:	9d 05       	cpc	r25, r13
    25d4:	9c f0       	brlt	.+38     	; 0x25fc <vfprintf+0x206>
    25d6:	3c ef       	ldi	r19, 0xFC	; 252
    25d8:	c3 16       	cp	r12, r19
    25da:	3f ef       	ldi	r19, 0xFF	; 255
    25dc:	d3 06       	cpc	r13, r19
    25de:	74 f0       	brlt	.+28     	; 0x25fc <vfprintf+0x206>
    25e0:	89 2d       	mov	r24, r9
    25e2:	80 68       	ori	r24, 0x80	; 128
    25e4:	98 2e       	mov	r9, r24
    25e6:	0a c0       	rjmp	.+20     	; 0x25fc <vfprintf+0x206>
    25e8:	e2 e0       	ldi	r30, 0x02	; 2
    25ea:	f0 e0       	ldi	r31, 0x00	; 0
    25ec:	ec 0f       	add	r30, r28
    25ee:	fd 1f       	adc	r31, r29
    25f0:	e1 0f       	add	r30, r17
    25f2:	f1 1d       	adc	r31, r1
    25f4:	80 81       	ld	r24, Z
    25f6:	80 33       	cpi	r24, 0x30	; 48
    25f8:	19 f4       	brne	.+6      	; 0x2600 <vfprintf+0x20a>
    25fa:	11 50       	subi	r17, 0x01	; 1
    25fc:	11 11       	cpse	r17, r1
    25fe:	f4 cf       	rjmp	.-24     	; 0x25e8 <vfprintf+0x1f2>
    2600:	97 fe       	sbrs	r9, 7
    2602:	0e c0       	rjmp	.+28     	; 0x2620 <vfprintf+0x22a>
    2604:	44 24       	eor	r4, r4
    2606:	43 94       	inc	r4
    2608:	41 0e       	add	r4, r17
    260a:	81 2f       	mov	r24, r17
    260c:	90 e0       	ldi	r25, 0x00	; 0
    260e:	c8 16       	cp	r12, r24
    2610:	d9 06       	cpc	r13, r25
    2612:	2c f4       	brge	.+10     	; 0x261e <vfprintf+0x228>
    2614:	1c 19       	sub	r17, r12
    2616:	04 c0       	rjmp	.+8      	; 0x2620 <vfprintf+0x22a>
    2618:	44 24       	eor	r4, r4
    261a:	43 94       	inc	r4
    261c:	01 c0       	rjmp	.+2      	; 0x2620 <vfprintf+0x22a>
    261e:	10 e0       	ldi	r17, 0x00	; 0
    2620:	97 fe       	sbrs	r9, 7
    2622:	06 c0       	rjmp	.+12     	; 0x2630 <vfprintf+0x23a>
    2624:	1c 14       	cp	r1, r12
    2626:	1d 04       	cpc	r1, r13
    2628:	34 f4       	brge	.+12     	; 0x2636 <vfprintf+0x240>
    262a:	c6 01       	movw	r24, r12
    262c:	01 96       	adiw	r24, 0x01	; 1
    262e:	05 c0       	rjmp	.+10     	; 0x263a <vfprintf+0x244>
    2630:	85 e0       	ldi	r24, 0x05	; 5
    2632:	90 e0       	ldi	r25, 0x00	; 0
    2634:	02 c0       	rjmp	.+4      	; 0x263a <vfprintf+0x244>
    2636:	81 e0       	ldi	r24, 0x01	; 1
    2638:	90 e0       	ldi	r25, 0x00	; 0
    263a:	01 11       	cpse	r16, r1
    263c:	01 96       	adiw	r24, 0x01	; 1
    263e:	11 23       	and	r17, r17
    2640:	31 f0       	breq	.+12     	; 0x264e <vfprintf+0x258>
    2642:	21 2f       	mov	r18, r17
    2644:	30 e0       	ldi	r19, 0x00	; 0
    2646:	2f 5f       	subi	r18, 0xFF	; 255
    2648:	3f 4f       	sbci	r19, 0xFF	; 255
    264a:	82 0f       	add	r24, r18
    264c:	93 1f       	adc	r25, r19
    264e:	25 2d       	mov	r18, r5
    2650:	30 e0       	ldi	r19, 0x00	; 0
    2652:	82 17       	cp	r24, r18
    2654:	93 07       	cpc	r25, r19
    2656:	14 f4       	brge	.+4      	; 0x265c <vfprintf+0x266>
    2658:	58 1a       	sub	r5, r24
    265a:	01 c0       	rjmp	.+2      	; 0x265e <vfprintf+0x268>
    265c:	51 2c       	mov	r5, r1
    265e:	89 2d       	mov	r24, r9
    2660:	89 70       	andi	r24, 0x09	; 9
    2662:	49 f4       	brne	.+18     	; 0x2676 <vfprintf+0x280>
    2664:	55 20       	and	r5, r5
    2666:	39 f0       	breq	.+14     	; 0x2676 <vfprintf+0x280>
    2668:	b7 01       	movw	r22, r14
    266a:	80 e2       	ldi	r24, 0x20	; 32
    266c:	90 e0       	ldi	r25, 0x00	; 0
    266e:	0e 94 cc 17 	call	0x2f98	; 0x2f98 <fputc>
    2672:	5a 94       	dec	r5
    2674:	f7 cf       	rjmp	.-18     	; 0x2664 <vfprintf+0x26e>
    2676:	00 23       	and	r16, r16
    2678:	29 f0       	breq	.+10     	; 0x2684 <vfprintf+0x28e>
    267a:	b7 01       	movw	r22, r14
    267c:	80 2f       	mov	r24, r16
    267e:	90 e0       	ldi	r25, 0x00	; 0
    2680:	0e 94 cc 17 	call	0x2f98	; 0x2f98 <fputc>
    2684:	93 fc       	sbrc	r9, 3
    2686:	09 c0       	rjmp	.+18     	; 0x269a <vfprintf+0x2a4>
    2688:	55 20       	and	r5, r5
    268a:	39 f0       	breq	.+14     	; 0x269a <vfprintf+0x2a4>
    268c:	b7 01       	movw	r22, r14
    268e:	80 e3       	ldi	r24, 0x30	; 48
    2690:	90 e0       	ldi	r25, 0x00	; 0
    2692:	0e 94 cc 17 	call	0x2f98	; 0x2f98 <fputc>
    2696:	5a 94       	dec	r5
    2698:	f7 cf       	rjmp	.-18     	; 0x2688 <vfprintf+0x292>
    269a:	97 fe       	sbrs	r9, 7
    269c:	4c c0       	rjmp	.+152    	; 0x2736 <vfprintf+0x340>
    269e:	46 01       	movw	r8, r12
    26a0:	d7 fe       	sbrs	r13, 7
    26a2:	02 c0       	rjmp	.+4      	; 0x26a8 <vfprintf+0x2b2>
    26a4:	81 2c       	mov	r8, r1
    26a6:	91 2c       	mov	r9, r1
    26a8:	c6 01       	movw	r24, r12
    26aa:	88 19       	sub	r24, r8
    26ac:	99 09       	sbc	r25, r9
    26ae:	f3 01       	movw	r30, r6
    26b0:	e8 0f       	add	r30, r24
    26b2:	f9 1f       	adc	r31, r25
    26b4:	fe 87       	std	Y+14, r31	; 0x0e
    26b6:	ed 87       	std	Y+13, r30	; 0x0d
    26b8:	96 01       	movw	r18, r12
    26ba:	24 19       	sub	r18, r4
    26bc:	31 09       	sbc	r19, r1
    26be:	38 8b       	std	Y+16, r19	; 0x10
    26c0:	2f 87       	std	Y+15, r18	; 0x0f
    26c2:	01 2f       	mov	r16, r17
    26c4:	10 e0       	ldi	r17, 0x00	; 0
    26c6:	11 95       	neg	r17
    26c8:	01 95       	neg	r16
    26ca:	11 09       	sbc	r17, r1
    26cc:	3f ef       	ldi	r19, 0xFF	; 255
    26ce:	83 16       	cp	r8, r19
    26d0:	93 06       	cpc	r9, r19
    26d2:	29 f4       	brne	.+10     	; 0x26de <vfprintf+0x2e8>
    26d4:	b7 01       	movw	r22, r14
    26d6:	8e e2       	ldi	r24, 0x2E	; 46
    26d8:	90 e0       	ldi	r25, 0x00	; 0
    26da:	0e 94 cc 17 	call	0x2f98	; 0x2f98 <fputc>
    26de:	c8 14       	cp	r12, r8
    26e0:	d9 04       	cpc	r13, r9
    26e2:	4c f0       	brlt	.+18     	; 0x26f6 <vfprintf+0x300>
    26e4:	8f 85       	ldd	r24, Y+15	; 0x0f
    26e6:	98 89       	ldd	r25, Y+16	; 0x10
    26e8:	88 15       	cp	r24, r8
    26ea:	99 05       	cpc	r25, r9
    26ec:	24 f4       	brge	.+8      	; 0x26f6 <vfprintf+0x300>
    26ee:	ed 85       	ldd	r30, Y+13	; 0x0d
    26f0:	fe 85       	ldd	r31, Y+14	; 0x0e
    26f2:	81 81       	ldd	r24, Z+1	; 0x01
    26f4:	01 c0       	rjmp	.+2      	; 0x26f8 <vfprintf+0x302>
    26f6:	80 e3       	ldi	r24, 0x30	; 48
    26f8:	f1 e0       	ldi	r31, 0x01	; 1
    26fa:	8f 1a       	sub	r8, r31
    26fc:	91 08       	sbc	r9, r1
    26fe:	2d 85       	ldd	r18, Y+13	; 0x0d
    2700:	3e 85       	ldd	r19, Y+14	; 0x0e
    2702:	2f 5f       	subi	r18, 0xFF	; 255
    2704:	3f 4f       	sbci	r19, 0xFF	; 255
    2706:	3e 87       	std	Y+14, r19	; 0x0e
    2708:	2d 87       	std	Y+13, r18	; 0x0d
    270a:	80 16       	cp	r8, r16
    270c:	91 06       	cpc	r9, r17
    270e:	2c f0       	brlt	.+10     	; 0x271a <vfprintf+0x324>
    2710:	b7 01       	movw	r22, r14
    2712:	90 e0       	ldi	r25, 0x00	; 0
    2714:	0e 94 cc 17 	call	0x2f98	; 0x2f98 <fputc>
    2718:	d9 cf       	rjmp	.-78     	; 0x26cc <vfprintf+0x2d6>
    271a:	c8 14       	cp	r12, r8
    271c:	d9 04       	cpc	r13, r9
    271e:	41 f4       	brne	.+16     	; 0x2730 <vfprintf+0x33a>
    2720:	9a 81       	ldd	r25, Y+2	; 0x02
    2722:	96 33       	cpi	r25, 0x36	; 54
    2724:	20 f4       	brcc	.+8      	; 0x272e <vfprintf+0x338>
    2726:	95 33       	cpi	r25, 0x35	; 53
    2728:	19 f4       	brne	.+6      	; 0x2730 <vfprintf+0x33a>
    272a:	3c 85       	ldd	r19, Y+12	; 0x0c
    272c:	34 ff       	sbrs	r19, 4
    272e:	81 e3       	ldi	r24, 0x31	; 49
    2730:	b7 01       	movw	r22, r14
    2732:	90 e0       	ldi	r25, 0x00	; 0
    2734:	4e c0       	rjmp	.+156    	; 0x27d2 <vfprintf+0x3dc>
    2736:	8a 81       	ldd	r24, Y+2	; 0x02
    2738:	81 33       	cpi	r24, 0x31	; 49
    273a:	19 f0       	breq	.+6      	; 0x2742 <vfprintf+0x34c>
    273c:	9c 85       	ldd	r25, Y+12	; 0x0c
    273e:	9f 7e       	andi	r25, 0xEF	; 239
    2740:	9c 87       	std	Y+12, r25	; 0x0c
    2742:	b7 01       	movw	r22, r14
    2744:	90 e0       	ldi	r25, 0x00	; 0
    2746:	0e 94 cc 17 	call	0x2f98	; 0x2f98 <fputc>
    274a:	11 11       	cpse	r17, r1
    274c:	05 c0       	rjmp	.+10     	; 0x2758 <vfprintf+0x362>
    274e:	94 fc       	sbrc	r9, 4
    2750:	18 c0       	rjmp	.+48     	; 0x2782 <vfprintf+0x38c>
    2752:	85 e6       	ldi	r24, 0x65	; 101
    2754:	90 e0       	ldi	r25, 0x00	; 0
    2756:	17 c0       	rjmp	.+46     	; 0x2786 <vfprintf+0x390>
    2758:	b7 01       	movw	r22, r14
    275a:	8e e2       	ldi	r24, 0x2E	; 46
    275c:	90 e0       	ldi	r25, 0x00	; 0
    275e:	0e 94 cc 17 	call	0x2f98	; 0x2f98 <fputc>
    2762:	1e 5f       	subi	r17, 0xFE	; 254
    2764:	82 e0       	ldi	r24, 0x02	; 2
    2766:	01 e0       	ldi	r16, 0x01	; 1
    2768:	08 0f       	add	r16, r24
    276a:	f3 01       	movw	r30, r6
    276c:	e8 0f       	add	r30, r24
    276e:	f1 1d       	adc	r31, r1
    2770:	80 81       	ld	r24, Z
    2772:	b7 01       	movw	r22, r14
    2774:	90 e0       	ldi	r25, 0x00	; 0
    2776:	0e 94 cc 17 	call	0x2f98	; 0x2f98 <fputc>
    277a:	80 2f       	mov	r24, r16
    277c:	01 13       	cpse	r16, r17
    277e:	f3 cf       	rjmp	.-26     	; 0x2766 <vfprintf+0x370>
    2780:	e6 cf       	rjmp	.-52     	; 0x274e <vfprintf+0x358>
    2782:	85 e4       	ldi	r24, 0x45	; 69
    2784:	90 e0       	ldi	r25, 0x00	; 0
    2786:	b7 01       	movw	r22, r14
    2788:	0e 94 cc 17 	call	0x2f98	; 0x2f98 <fputc>
    278c:	d7 fc       	sbrc	r13, 7
    278e:	06 c0       	rjmp	.+12     	; 0x279c <vfprintf+0x3a6>
    2790:	c1 14       	cp	r12, r1
    2792:	d1 04       	cpc	r13, r1
    2794:	41 f4       	brne	.+16     	; 0x27a6 <vfprintf+0x3b0>
    2796:	ec 85       	ldd	r30, Y+12	; 0x0c
    2798:	e4 ff       	sbrs	r30, 4
    279a:	05 c0       	rjmp	.+10     	; 0x27a6 <vfprintf+0x3b0>
    279c:	d1 94       	neg	r13
    279e:	c1 94       	neg	r12
    27a0:	d1 08       	sbc	r13, r1
    27a2:	8d e2       	ldi	r24, 0x2D	; 45
    27a4:	01 c0       	rjmp	.+2      	; 0x27a8 <vfprintf+0x3b2>
    27a6:	8b e2       	ldi	r24, 0x2B	; 43
    27a8:	b7 01       	movw	r22, r14
    27aa:	90 e0       	ldi	r25, 0x00	; 0
    27ac:	0e 94 cc 17 	call	0x2f98	; 0x2f98 <fputc>
    27b0:	80 e3       	ldi	r24, 0x30	; 48
    27b2:	2a e0       	ldi	r18, 0x0A	; 10
    27b4:	c2 16       	cp	r12, r18
    27b6:	d1 04       	cpc	r13, r1
    27b8:	2c f0       	brlt	.+10     	; 0x27c4 <vfprintf+0x3ce>
    27ba:	8f 5f       	subi	r24, 0xFF	; 255
    27bc:	fa e0       	ldi	r31, 0x0A	; 10
    27be:	cf 1a       	sub	r12, r31
    27c0:	d1 08       	sbc	r13, r1
    27c2:	f7 cf       	rjmp	.-18     	; 0x27b2 <vfprintf+0x3bc>
    27c4:	b7 01       	movw	r22, r14
    27c6:	90 e0       	ldi	r25, 0x00	; 0
    27c8:	0e 94 cc 17 	call	0x2f98	; 0x2f98 <fputc>
    27cc:	b7 01       	movw	r22, r14
    27ce:	c6 01       	movw	r24, r12
    27d0:	c0 96       	adiw	r24, 0x30	; 48
    27d2:	0e 94 cc 17 	call	0x2f98	; 0x2f98 <fputc>
    27d6:	54 c1       	rjmp	.+680    	; 0x2a80 <vfprintf+0x68a>
    27d8:	83 36       	cpi	r24, 0x63	; 99
    27da:	31 f0       	breq	.+12     	; 0x27e8 <vfprintf+0x3f2>
    27dc:	83 37       	cpi	r24, 0x73	; 115
    27de:	79 f0       	breq	.+30     	; 0x27fe <vfprintf+0x408>
    27e0:	83 35       	cpi	r24, 0x53	; 83
    27e2:	09 f0       	breq	.+2      	; 0x27e6 <vfprintf+0x3f0>
    27e4:	56 c0       	rjmp	.+172    	; 0x2892 <vfprintf+0x49c>
    27e6:	20 c0       	rjmp	.+64     	; 0x2828 <vfprintf+0x432>
    27e8:	56 01       	movw	r10, r12
    27ea:	32 e0       	ldi	r19, 0x02	; 2
    27ec:	a3 0e       	add	r10, r19
    27ee:	b1 1c       	adc	r11, r1
    27f0:	f6 01       	movw	r30, r12
    27f2:	80 81       	ld	r24, Z
    27f4:	89 83       	std	Y+1, r24	; 0x01
    27f6:	01 e0       	ldi	r16, 0x01	; 1
    27f8:	10 e0       	ldi	r17, 0x00	; 0
    27fa:	63 01       	movw	r12, r6
    27fc:	12 c0       	rjmp	.+36     	; 0x2822 <vfprintf+0x42c>
    27fe:	56 01       	movw	r10, r12
    2800:	f2 e0       	ldi	r31, 0x02	; 2
    2802:	af 0e       	add	r10, r31
    2804:	b1 1c       	adc	r11, r1
    2806:	f6 01       	movw	r30, r12
    2808:	c0 80       	ld	r12, Z
    280a:	d1 80       	ldd	r13, Z+1	; 0x01
    280c:	96 fe       	sbrs	r9, 6
    280e:	03 c0       	rjmp	.+6      	; 0x2816 <vfprintf+0x420>
    2810:	61 2f       	mov	r22, r17
    2812:	70 e0       	ldi	r23, 0x00	; 0
    2814:	02 c0       	rjmp	.+4      	; 0x281a <vfprintf+0x424>
    2816:	6f ef       	ldi	r22, 0xFF	; 255
    2818:	7f ef       	ldi	r23, 0xFF	; 255
    281a:	c6 01       	movw	r24, r12
    281c:	0e 94 48 17 	call	0x2e90	; 0x2e90 <strnlen>
    2820:	8c 01       	movw	r16, r24
    2822:	f9 2d       	mov	r31, r9
    2824:	ff 77       	andi	r31, 0x7F	; 127
    2826:	14 c0       	rjmp	.+40     	; 0x2850 <vfprintf+0x45a>
    2828:	56 01       	movw	r10, r12
    282a:	22 e0       	ldi	r18, 0x02	; 2
    282c:	a2 0e       	add	r10, r18
    282e:	b1 1c       	adc	r11, r1
    2830:	f6 01       	movw	r30, r12
    2832:	c0 80       	ld	r12, Z
    2834:	d1 80       	ldd	r13, Z+1	; 0x01
    2836:	96 fe       	sbrs	r9, 6
    2838:	03 c0       	rjmp	.+6      	; 0x2840 <vfprintf+0x44a>
    283a:	61 2f       	mov	r22, r17
    283c:	70 e0       	ldi	r23, 0x00	; 0
    283e:	02 c0       	rjmp	.+4      	; 0x2844 <vfprintf+0x44e>
    2840:	6f ef       	ldi	r22, 0xFF	; 255
    2842:	7f ef       	ldi	r23, 0xFF	; 255
    2844:	c6 01       	movw	r24, r12
    2846:	0e 94 17 17 	call	0x2e2e	; 0x2e2e <strnlen_P>
    284a:	8c 01       	movw	r16, r24
    284c:	f9 2d       	mov	r31, r9
    284e:	f0 68       	ori	r31, 0x80	; 128
    2850:	9f 2e       	mov	r9, r31
    2852:	f3 fd       	sbrc	r31, 3
    2854:	1a c0       	rjmp	.+52     	; 0x288a <vfprintf+0x494>
    2856:	85 2d       	mov	r24, r5
    2858:	90 e0       	ldi	r25, 0x00	; 0
    285a:	08 17       	cp	r16, r24
    285c:	19 07       	cpc	r17, r25
    285e:	a8 f4       	brcc	.+42     	; 0x288a <vfprintf+0x494>
    2860:	b7 01       	movw	r22, r14
    2862:	80 e2       	ldi	r24, 0x20	; 32
    2864:	90 e0       	ldi	r25, 0x00	; 0
    2866:	0e 94 cc 17 	call	0x2f98	; 0x2f98 <fputc>
    286a:	5a 94       	dec	r5
    286c:	f4 cf       	rjmp	.-24     	; 0x2856 <vfprintf+0x460>
    286e:	f6 01       	movw	r30, r12
    2870:	97 fc       	sbrc	r9, 7
    2872:	85 91       	lpm	r24, Z+
    2874:	97 fe       	sbrs	r9, 7
    2876:	81 91       	ld	r24, Z+
    2878:	6f 01       	movw	r12, r30
    287a:	b7 01       	movw	r22, r14
    287c:	90 e0       	ldi	r25, 0x00	; 0
    287e:	0e 94 cc 17 	call	0x2f98	; 0x2f98 <fputc>
    2882:	51 10       	cpse	r5, r1
    2884:	5a 94       	dec	r5
    2886:	01 50       	subi	r16, 0x01	; 1
    2888:	11 09       	sbc	r17, r1
    288a:	01 15       	cp	r16, r1
    288c:	11 05       	cpc	r17, r1
    288e:	79 f7       	brne	.-34     	; 0x286e <vfprintf+0x478>
    2890:	f7 c0       	rjmp	.+494    	; 0x2a80 <vfprintf+0x68a>
    2892:	84 36       	cpi	r24, 0x64	; 100
    2894:	11 f0       	breq	.+4      	; 0x289a <vfprintf+0x4a4>
    2896:	89 36       	cpi	r24, 0x69	; 105
    2898:	61 f5       	brne	.+88     	; 0x28f2 <vfprintf+0x4fc>
    289a:	56 01       	movw	r10, r12
    289c:	97 fe       	sbrs	r9, 7
    289e:	09 c0       	rjmp	.+18     	; 0x28b2 <vfprintf+0x4bc>
    28a0:	24 e0       	ldi	r18, 0x04	; 4
    28a2:	a2 0e       	add	r10, r18
    28a4:	b1 1c       	adc	r11, r1
    28a6:	f6 01       	movw	r30, r12
    28a8:	60 81       	ld	r22, Z
    28aa:	71 81       	ldd	r23, Z+1	; 0x01
    28ac:	82 81       	ldd	r24, Z+2	; 0x02
    28ae:	93 81       	ldd	r25, Z+3	; 0x03
    28b0:	0a c0       	rjmp	.+20     	; 0x28c6 <vfprintf+0x4d0>
    28b2:	f2 e0       	ldi	r31, 0x02	; 2
    28b4:	af 0e       	add	r10, r31
    28b6:	b1 1c       	adc	r11, r1
    28b8:	f6 01       	movw	r30, r12
    28ba:	60 81       	ld	r22, Z
    28bc:	71 81       	ldd	r23, Z+1	; 0x01
    28be:	07 2e       	mov	r0, r23
    28c0:	00 0c       	add	r0, r0
    28c2:	88 0b       	sbc	r24, r24
    28c4:	99 0b       	sbc	r25, r25
    28c6:	f9 2d       	mov	r31, r9
    28c8:	ff 76       	andi	r31, 0x6F	; 111
    28ca:	9f 2e       	mov	r9, r31
    28cc:	97 ff       	sbrs	r25, 7
    28ce:	09 c0       	rjmp	.+18     	; 0x28e2 <vfprintf+0x4ec>
    28d0:	90 95       	com	r25
    28d2:	80 95       	com	r24
    28d4:	70 95       	com	r23
    28d6:	61 95       	neg	r22
    28d8:	7f 4f       	sbci	r23, 0xFF	; 255
    28da:	8f 4f       	sbci	r24, 0xFF	; 255
    28dc:	9f 4f       	sbci	r25, 0xFF	; 255
    28de:	f0 68       	ori	r31, 0x80	; 128
    28e0:	9f 2e       	mov	r9, r31
    28e2:	2a e0       	ldi	r18, 0x0A	; 10
    28e4:	30 e0       	ldi	r19, 0x00	; 0
    28e6:	a3 01       	movw	r20, r6
    28e8:	0e 94 2a 18 	call	0x3054	; 0x3054 <__ultoa_invert>
    28ec:	c8 2e       	mov	r12, r24
    28ee:	c6 18       	sub	r12, r6
    28f0:	3f c0       	rjmp	.+126    	; 0x2970 <vfprintf+0x57a>
    28f2:	09 2d       	mov	r16, r9
    28f4:	85 37       	cpi	r24, 0x75	; 117
    28f6:	21 f4       	brne	.+8      	; 0x2900 <vfprintf+0x50a>
    28f8:	0f 7e       	andi	r16, 0xEF	; 239
    28fa:	2a e0       	ldi	r18, 0x0A	; 10
    28fc:	30 e0       	ldi	r19, 0x00	; 0
    28fe:	1d c0       	rjmp	.+58     	; 0x293a <vfprintf+0x544>
    2900:	09 7f       	andi	r16, 0xF9	; 249
    2902:	8f 36       	cpi	r24, 0x6F	; 111
    2904:	91 f0       	breq	.+36     	; 0x292a <vfprintf+0x534>
    2906:	18 f4       	brcc	.+6      	; 0x290e <vfprintf+0x518>
    2908:	88 35       	cpi	r24, 0x58	; 88
    290a:	59 f0       	breq	.+22     	; 0x2922 <vfprintf+0x52c>
    290c:	c3 c0       	rjmp	.+390    	; 0x2a94 <vfprintf+0x69e>
    290e:	80 37       	cpi	r24, 0x70	; 112
    2910:	19 f0       	breq	.+6      	; 0x2918 <vfprintf+0x522>
    2912:	88 37       	cpi	r24, 0x78	; 120
    2914:	11 f0       	breq	.+4      	; 0x291a <vfprintf+0x524>
    2916:	be c0       	rjmp	.+380    	; 0x2a94 <vfprintf+0x69e>
    2918:	00 61       	ori	r16, 0x10	; 16
    291a:	04 ff       	sbrs	r16, 4
    291c:	09 c0       	rjmp	.+18     	; 0x2930 <vfprintf+0x53a>
    291e:	04 60       	ori	r16, 0x04	; 4
    2920:	07 c0       	rjmp	.+14     	; 0x2930 <vfprintf+0x53a>
    2922:	94 fe       	sbrs	r9, 4
    2924:	08 c0       	rjmp	.+16     	; 0x2936 <vfprintf+0x540>
    2926:	06 60       	ori	r16, 0x06	; 6
    2928:	06 c0       	rjmp	.+12     	; 0x2936 <vfprintf+0x540>
    292a:	28 e0       	ldi	r18, 0x08	; 8
    292c:	30 e0       	ldi	r19, 0x00	; 0
    292e:	05 c0       	rjmp	.+10     	; 0x293a <vfprintf+0x544>
    2930:	20 e1       	ldi	r18, 0x10	; 16
    2932:	30 e0       	ldi	r19, 0x00	; 0
    2934:	02 c0       	rjmp	.+4      	; 0x293a <vfprintf+0x544>
    2936:	20 e1       	ldi	r18, 0x10	; 16
    2938:	32 e0       	ldi	r19, 0x02	; 2
    293a:	56 01       	movw	r10, r12
    293c:	07 ff       	sbrs	r16, 7
    293e:	09 c0       	rjmp	.+18     	; 0x2952 <vfprintf+0x55c>
    2940:	84 e0       	ldi	r24, 0x04	; 4
    2942:	a8 0e       	add	r10, r24
    2944:	b1 1c       	adc	r11, r1
    2946:	f6 01       	movw	r30, r12
    2948:	60 81       	ld	r22, Z
    294a:	71 81       	ldd	r23, Z+1	; 0x01
    294c:	82 81       	ldd	r24, Z+2	; 0x02
    294e:	93 81       	ldd	r25, Z+3	; 0x03
    2950:	08 c0       	rjmp	.+16     	; 0x2962 <vfprintf+0x56c>
    2952:	f2 e0       	ldi	r31, 0x02	; 2
    2954:	af 0e       	add	r10, r31
    2956:	b1 1c       	adc	r11, r1
    2958:	f6 01       	movw	r30, r12
    295a:	60 81       	ld	r22, Z
    295c:	71 81       	ldd	r23, Z+1	; 0x01
    295e:	80 e0       	ldi	r24, 0x00	; 0
    2960:	90 e0       	ldi	r25, 0x00	; 0
    2962:	a3 01       	movw	r20, r6
    2964:	0e 94 2a 18 	call	0x3054	; 0x3054 <__ultoa_invert>
    2968:	c8 2e       	mov	r12, r24
    296a:	c6 18       	sub	r12, r6
    296c:	0f 77       	andi	r16, 0x7F	; 127
    296e:	90 2e       	mov	r9, r16
    2970:	96 fe       	sbrs	r9, 6
    2972:	0b c0       	rjmp	.+22     	; 0x298a <vfprintf+0x594>
    2974:	09 2d       	mov	r16, r9
    2976:	0e 7f       	andi	r16, 0xFE	; 254
    2978:	c1 16       	cp	r12, r17
    297a:	50 f4       	brcc	.+20     	; 0x2990 <vfprintf+0x59a>
    297c:	94 fe       	sbrs	r9, 4
    297e:	0a c0       	rjmp	.+20     	; 0x2994 <vfprintf+0x59e>
    2980:	92 fc       	sbrc	r9, 2
    2982:	08 c0       	rjmp	.+16     	; 0x2994 <vfprintf+0x59e>
    2984:	09 2d       	mov	r16, r9
    2986:	0e 7e       	andi	r16, 0xEE	; 238
    2988:	05 c0       	rjmp	.+10     	; 0x2994 <vfprintf+0x59e>
    298a:	dc 2c       	mov	r13, r12
    298c:	09 2d       	mov	r16, r9
    298e:	03 c0       	rjmp	.+6      	; 0x2996 <vfprintf+0x5a0>
    2990:	dc 2c       	mov	r13, r12
    2992:	01 c0       	rjmp	.+2      	; 0x2996 <vfprintf+0x5a0>
    2994:	d1 2e       	mov	r13, r17
    2996:	04 ff       	sbrs	r16, 4
    2998:	0d c0       	rjmp	.+26     	; 0x29b4 <vfprintf+0x5be>
    299a:	fe 01       	movw	r30, r28
    299c:	ec 0d       	add	r30, r12
    299e:	f1 1d       	adc	r31, r1
    29a0:	80 81       	ld	r24, Z
    29a2:	80 33       	cpi	r24, 0x30	; 48
    29a4:	11 f4       	brne	.+4      	; 0x29aa <vfprintf+0x5b4>
    29a6:	09 7e       	andi	r16, 0xE9	; 233
    29a8:	09 c0       	rjmp	.+18     	; 0x29bc <vfprintf+0x5c6>
    29aa:	02 ff       	sbrs	r16, 2
    29ac:	06 c0       	rjmp	.+12     	; 0x29ba <vfprintf+0x5c4>
    29ae:	d3 94       	inc	r13
    29b0:	d3 94       	inc	r13
    29b2:	04 c0       	rjmp	.+8      	; 0x29bc <vfprintf+0x5c6>
    29b4:	80 2f       	mov	r24, r16
    29b6:	86 78       	andi	r24, 0x86	; 134
    29b8:	09 f0       	breq	.+2      	; 0x29bc <vfprintf+0x5c6>
    29ba:	d3 94       	inc	r13
    29bc:	03 fd       	sbrc	r16, 3
    29be:	11 c0       	rjmp	.+34     	; 0x29e2 <vfprintf+0x5ec>
    29c0:	00 ff       	sbrs	r16, 0
    29c2:	06 c0       	rjmp	.+12     	; 0x29d0 <vfprintf+0x5da>
    29c4:	1c 2d       	mov	r17, r12
    29c6:	d5 14       	cp	r13, r5
    29c8:	80 f4       	brcc	.+32     	; 0x29ea <vfprintf+0x5f4>
    29ca:	15 0d       	add	r17, r5
    29cc:	1d 19       	sub	r17, r13
    29ce:	0d c0       	rjmp	.+26     	; 0x29ea <vfprintf+0x5f4>
    29d0:	d5 14       	cp	r13, r5
    29d2:	58 f4       	brcc	.+22     	; 0x29ea <vfprintf+0x5f4>
    29d4:	b7 01       	movw	r22, r14
    29d6:	80 e2       	ldi	r24, 0x20	; 32
    29d8:	90 e0       	ldi	r25, 0x00	; 0
    29da:	0e 94 cc 17 	call	0x2f98	; 0x2f98 <fputc>
    29de:	d3 94       	inc	r13
    29e0:	f7 cf       	rjmp	.-18     	; 0x29d0 <vfprintf+0x5da>
    29e2:	d5 14       	cp	r13, r5
    29e4:	10 f4       	brcc	.+4      	; 0x29ea <vfprintf+0x5f4>
    29e6:	5d 18       	sub	r5, r13
    29e8:	01 c0       	rjmp	.+2      	; 0x29ec <vfprintf+0x5f6>
    29ea:	51 2c       	mov	r5, r1
    29ec:	04 ff       	sbrs	r16, 4
    29ee:	10 c0       	rjmp	.+32     	; 0x2a10 <vfprintf+0x61a>
    29f0:	b7 01       	movw	r22, r14
    29f2:	80 e3       	ldi	r24, 0x30	; 48
    29f4:	90 e0       	ldi	r25, 0x00	; 0
    29f6:	0e 94 cc 17 	call	0x2f98	; 0x2f98 <fputc>
    29fa:	02 ff       	sbrs	r16, 2
    29fc:	17 c0       	rjmp	.+46     	; 0x2a2c <vfprintf+0x636>
    29fe:	01 fd       	sbrc	r16, 1
    2a00:	03 c0       	rjmp	.+6      	; 0x2a08 <vfprintf+0x612>
    2a02:	88 e7       	ldi	r24, 0x78	; 120
    2a04:	90 e0       	ldi	r25, 0x00	; 0
    2a06:	02 c0       	rjmp	.+4      	; 0x2a0c <vfprintf+0x616>
    2a08:	88 e5       	ldi	r24, 0x58	; 88
    2a0a:	90 e0       	ldi	r25, 0x00	; 0
    2a0c:	b7 01       	movw	r22, r14
    2a0e:	0c c0       	rjmp	.+24     	; 0x2a28 <vfprintf+0x632>
    2a10:	80 2f       	mov	r24, r16
    2a12:	86 78       	andi	r24, 0x86	; 134
    2a14:	59 f0       	breq	.+22     	; 0x2a2c <vfprintf+0x636>
    2a16:	01 ff       	sbrs	r16, 1
    2a18:	02 c0       	rjmp	.+4      	; 0x2a1e <vfprintf+0x628>
    2a1a:	8b e2       	ldi	r24, 0x2B	; 43
    2a1c:	01 c0       	rjmp	.+2      	; 0x2a20 <vfprintf+0x62a>
    2a1e:	80 e2       	ldi	r24, 0x20	; 32
    2a20:	07 fd       	sbrc	r16, 7
    2a22:	8d e2       	ldi	r24, 0x2D	; 45
    2a24:	b7 01       	movw	r22, r14
    2a26:	90 e0       	ldi	r25, 0x00	; 0
    2a28:	0e 94 cc 17 	call	0x2f98	; 0x2f98 <fputc>
    2a2c:	c1 16       	cp	r12, r17
    2a2e:	38 f4       	brcc	.+14     	; 0x2a3e <vfprintf+0x648>
    2a30:	b7 01       	movw	r22, r14
    2a32:	80 e3       	ldi	r24, 0x30	; 48
    2a34:	90 e0       	ldi	r25, 0x00	; 0
    2a36:	0e 94 cc 17 	call	0x2f98	; 0x2f98 <fputc>
    2a3a:	11 50       	subi	r17, 0x01	; 1
    2a3c:	f7 cf       	rjmp	.-18     	; 0x2a2c <vfprintf+0x636>
    2a3e:	ca 94       	dec	r12
    2a40:	f3 01       	movw	r30, r6
    2a42:	ec 0d       	add	r30, r12
    2a44:	f1 1d       	adc	r31, r1
    2a46:	80 81       	ld	r24, Z
    2a48:	b7 01       	movw	r22, r14
    2a4a:	90 e0       	ldi	r25, 0x00	; 0
    2a4c:	0e 94 cc 17 	call	0x2f98	; 0x2f98 <fputc>
    2a50:	c1 10       	cpse	r12, r1
    2a52:	f5 cf       	rjmp	.-22     	; 0x2a3e <vfprintf+0x648>
    2a54:	15 c0       	rjmp	.+42     	; 0x2a80 <vfprintf+0x68a>
    2a56:	f4 e0       	ldi	r31, 0x04	; 4
    2a58:	f5 15       	cp	r31, r5
    2a5a:	60 f5       	brcc	.+88     	; 0x2ab4 <vfprintf+0x6be>
    2a5c:	84 e0       	ldi	r24, 0x04	; 4
    2a5e:	58 1a       	sub	r5, r24
    2a60:	93 fe       	sbrs	r9, 3
    2a62:	1f c0       	rjmp	.+62     	; 0x2aa2 <vfprintf+0x6ac>
    2a64:	01 11       	cpse	r16, r1
    2a66:	27 c0       	rjmp	.+78     	; 0x2ab6 <vfprintf+0x6c0>
    2a68:	2c 85       	ldd	r18, Y+12	; 0x0c
    2a6a:	23 ff       	sbrs	r18, 3
    2a6c:	2a c0       	rjmp	.+84     	; 0x2ac2 <vfprintf+0x6cc>
    2a6e:	08 e6       	ldi	r16, 0x68	; 104
    2a70:	10 e0       	ldi	r17, 0x00	; 0
    2a72:	39 2d       	mov	r19, r9
    2a74:	30 71       	andi	r19, 0x10	; 16
    2a76:	93 2e       	mov	r9, r19
    2a78:	f8 01       	movw	r30, r16
    2a7a:	84 91       	lpm	r24, Z
    2a7c:	81 11       	cpse	r24, r1
    2a7e:	24 c0       	rjmp	.+72     	; 0x2ac8 <vfprintf+0x6d2>
    2a80:	55 20       	and	r5, r5
    2a82:	09 f4       	brne	.+2      	; 0x2a86 <vfprintf+0x690>
    2a84:	e4 cc       	rjmp	.-1592   	; 0x244e <vfprintf+0x58>
    2a86:	b7 01       	movw	r22, r14
    2a88:	80 e2       	ldi	r24, 0x20	; 32
    2a8a:	90 e0       	ldi	r25, 0x00	; 0
    2a8c:	0e 94 cc 17 	call	0x2f98	; 0x2f98 <fputc>
    2a90:	5a 94       	dec	r5
    2a92:	f6 cf       	rjmp	.-20     	; 0x2a80 <vfprintf+0x68a>
    2a94:	f7 01       	movw	r30, r14
    2a96:	86 81       	ldd	r24, Z+6	; 0x06
    2a98:	97 81       	ldd	r25, Z+7	; 0x07
    2a9a:	26 c0       	rjmp	.+76     	; 0x2ae8 <vfprintf+0x6f2>
    2a9c:	8f ef       	ldi	r24, 0xFF	; 255
    2a9e:	9f ef       	ldi	r25, 0xFF	; 255
    2aa0:	23 c0       	rjmp	.+70     	; 0x2ae8 <vfprintf+0x6f2>
    2aa2:	b7 01       	movw	r22, r14
    2aa4:	80 e2       	ldi	r24, 0x20	; 32
    2aa6:	90 e0       	ldi	r25, 0x00	; 0
    2aa8:	0e 94 cc 17 	call	0x2f98	; 0x2f98 <fputc>
    2aac:	5a 94       	dec	r5
    2aae:	51 10       	cpse	r5, r1
    2ab0:	f8 cf       	rjmp	.-16     	; 0x2aa2 <vfprintf+0x6ac>
    2ab2:	d8 cf       	rjmp	.-80     	; 0x2a64 <vfprintf+0x66e>
    2ab4:	51 2c       	mov	r5, r1
    2ab6:	b7 01       	movw	r22, r14
    2ab8:	80 2f       	mov	r24, r16
    2aba:	90 e0       	ldi	r25, 0x00	; 0
    2abc:	0e 94 cc 17 	call	0x2f98	; 0x2f98 <fputc>
    2ac0:	d3 cf       	rjmp	.-90     	; 0x2a68 <vfprintf+0x672>
    2ac2:	0c e6       	ldi	r16, 0x6C	; 108
    2ac4:	10 e0       	ldi	r17, 0x00	; 0
    2ac6:	d5 cf       	rjmp	.-86     	; 0x2a72 <vfprintf+0x67c>
    2ac8:	91 10       	cpse	r9, r1
    2aca:	80 52       	subi	r24, 0x20	; 32
    2acc:	b7 01       	movw	r22, r14
    2ace:	90 e0       	ldi	r25, 0x00	; 0
    2ad0:	0e 94 cc 17 	call	0x2f98	; 0x2f98 <fputc>
    2ad4:	0f 5f       	subi	r16, 0xFF	; 255
    2ad6:	1f 4f       	sbci	r17, 0xFF	; 255
    2ad8:	cf cf       	rjmp	.-98     	; 0x2a78 <vfprintf+0x682>
    2ada:	23 e0       	ldi	r18, 0x03	; 3
    2adc:	25 15       	cp	r18, r5
    2ade:	10 f4       	brcc	.+4      	; 0x2ae4 <vfprintf+0x6ee>
    2ae0:	83 e0       	ldi	r24, 0x03	; 3
    2ae2:	bd cf       	rjmp	.-134    	; 0x2a5e <vfprintf+0x668>
    2ae4:	51 2c       	mov	r5, r1
    2ae6:	c0 cf       	rjmp	.-128    	; 0x2a68 <vfprintf+0x672>
    2ae8:	60 96       	adiw	r28, 0x10	; 16
    2aea:	e2 e1       	ldi	r30, 0x12	; 18
    2aec:	0c 94 c5 15 	jmp	0x2b8a	; 0x2b8a <__epilogue_restores__>

00002af0 <__udivmodsi4>:
    2af0:	a1 e2       	ldi	r26, 0x21	; 33
    2af2:	1a 2e       	mov	r1, r26
    2af4:	aa 1b       	sub	r26, r26
    2af6:	bb 1b       	sub	r27, r27
    2af8:	fd 01       	movw	r30, r26
    2afa:	0d c0       	rjmp	.+26     	; 0x2b16 <__udivmodsi4_ep>

00002afc <__udivmodsi4_loop>:
    2afc:	aa 1f       	adc	r26, r26
    2afe:	bb 1f       	adc	r27, r27
    2b00:	ee 1f       	adc	r30, r30
    2b02:	ff 1f       	adc	r31, r31
    2b04:	a2 17       	cp	r26, r18
    2b06:	b3 07       	cpc	r27, r19
    2b08:	e4 07       	cpc	r30, r20
    2b0a:	f5 07       	cpc	r31, r21
    2b0c:	20 f0       	brcs	.+8      	; 0x2b16 <__udivmodsi4_ep>
    2b0e:	a2 1b       	sub	r26, r18
    2b10:	b3 0b       	sbc	r27, r19
    2b12:	e4 0b       	sbc	r30, r20
    2b14:	f5 0b       	sbc	r31, r21

00002b16 <__udivmodsi4_ep>:
    2b16:	66 1f       	adc	r22, r22
    2b18:	77 1f       	adc	r23, r23
    2b1a:	88 1f       	adc	r24, r24
    2b1c:	99 1f       	adc	r25, r25
    2b1e:	1a 94       	dec	r1
    2b20:	69 f7       	brne	.-38     	; 0x2afc <__udivmodsi4_loop>
    2b22:	60 95       	com	r22
    2b24:	70 95       	com	r23
    2b26:	80 95       	com	r24
    2b28:	90 95       	com	r25
    2b2a:	9b 01       	movw	r18, r22
    2b2c:	ac 01       	movw	r20, r24
    2b2e:	bd 01       	movw	r22, r26
    2b30:	cf 01       	movw	r24, r30
    2b32:	08 95       	ret

00002b34 <__umulhisi3>:
    2b34:	a2 9f       	mul	r26, r18
    2b36:	b0 01       	movw	r22, r0
    2b38:	b3 9f       	mul	r27, r19
    2b3a:	c0 01       	movw	r24, r0
    2b3c:	a3 9f       	mul	r26, r19
    2b3e:	70 0d       	add	r23, r0
    2b40:	81 1d       	adc	r24, r1
    2b42:	11 24       	eor	r1, r1
    2b44:	91 1d       	adc	r25, r1
    2b46:	b2 9f       	mul	r27, r18
    2b48:	70 0d       	add	r23, r0
    2b4a:	81 1d       	adc	r24, r1
    2b4c:	11 24       	eor	r1, r1
    2b4e:	91 1d       	adc	r25, r1
    2b50:	08 95       	ret

00002b52 <__prologue_saves__>:
    2b52:	2f 92       	push	r2
    2b54:	3f 92       	push	r3
    2b56:	4f 92       	push	r4
    2b58:	5f 92       	push	r5
    2b5a:	6f 92       	push	r6
    2b5c:	7f 92       	push	r7
    2b5e:	8f 92       	push	r8
    2b60:	9f 92       	push	r9
    2b62:	af 92       	push	r10
    2b64:	bf 92       	push	r11
    2b66:	cf 92       	push	r12
    2b68:	df 92       	push	r13
    2b6a:	ef 92       	push	r14
    2b6c:	ff 92       	push	r15
    2b6e:	0f 93       	push	r16
    2b70:	1f 93       	push	r17
    2b72:	cf 93       	push	r28
    2b74:	df 93       	push	r29
    2b76:	cd b7       	in	r28, 0x3d	; 61
    2b78:	de b7       	in	r29, 0x3e	; 62
    2b7a:	ca 1b       	sub	r28, r26
    2b7c:	db 0b       	sbc	r29, r27
    2b7e:	0f b6       	in	r0, 0x3f	; 63
    2b80:	f8 94       	cli
    2b82:	de bf       	out	0x3e, r29	; 62
    2b84:	0f be       	out	0x3f, r0	; 63
    2b86:	cd bf       	out	0x3d, r28	; 61
    2b88:	09 94       	ijmp

00002b8a <__epilogue_restores__>:
    2b8a:	2a 88       	ldd	r2, Y+18	; 0x12
    2b8c:	39 88       	ldd	r3, Y+17	; 0x11
    2b8e:	48 88       	ldd	r4, Y+16	; 0x10
    2b90:	5f 84       	ldd	r5, Y+15	; 0x0f
    2b92:	6e 84       	ldd	r6, Y+14	; 0x0e
    2b94:	7d 84       	ldd	r7, Y+13	; 0x0d
    2b96:	8c 84       	ldd	r8, Y+12	; 0x0c
    2b98:	9b 84       	ldd	r9, Y+11	; 0x0b
    2b9a:	aa 84       	ldd	r10, Y+10	; 0x0a
    2b9c:	b9 84       	ldd	r11, Y+9	; 0x09
    2b9e:	c8 84       	ldd	r12, Y+8	; 0x08
    2ba0:	df 80       	ldd	r13, Y+7	; 0x07
    2ba2:	ee 80       	ldd	r14, Y+6	; 0x06
    2ba4:	fd 80       	ldd	r15, Y+5	; 0x05
    2ba6:	0c 81       	ldd	r16, Y+4	; 0x04
    2ba8:	1b 81       	ldd	r17, Y+3	; 0x03
    2baa:	aa 81       	ldd	r26, Y+2	; 0x02
    2bac:	b9 81       	ldd	r27, Y+1	; 0x01
    2bae:	ce 0f       	add	r28, r30
    2bb0:	d1 1d       	adc	r29, r1
    2bb2:	0f b6       	in	r0, 0x3f	; 63
    2bb4:	f8 94       	cli
    2bb6:	de bf       	out	0x3e, r29	; 62
    2bb8:	0f be       	out	0x3f, r0	; 63
    2bba:	cd bf       	out	0x3d, r28	; 61
    2bbc:	ed 01       	movw	r28, r26
    2bbe:	08 95       	ret

00002bc0 <atoi>:
    2bc0:	fc 01       	movw	r30, r24
    2bc2:	88 27       	eor	r24, r24
    2bc4:	99 27       	eor	r25, r25
    2bc6:	e8 94       	clt
    2bc8:	21 91       	ld	r18, Z+
    2bca:	20 32       	cpi	r18, 0x20	; 32
    2bcc:	e9 f3       	breq	.-6      	; 0x2bc8 <atoi+0x8>
    2bce:	29 30       	cpi	r18, 0x09	; 9
    2bd0:	10 f0       	brcs	.+4      	; 0x2bd6 <atoi+0x16>
    2bd2:	2e 30       	cpi	r18, 0x0E	; 14
    2bd4:	c8 f3       	brcs	.-14     	; 0x2bc8 <atoi+0x8>
    2bd6:	2b 32       	cpi	r18, 0x2B	; 43
    2bd8:	41 f0       	breq	.+16     	; 0x2bea <atoi+0x2a>
    2bda:	2d 32       	cpi	r18, 0x2D	; 45
    2bdc:	39 f4       	brne	.+14     	; 0x2bec <atoi+0x2c>
    2bde:	68 94       	set
    2be0:	04 c0       	rjmp	.+8      	; 0x2bea <atoi+0x2a>
    2be2:	0e 94 aa 17 	call	0x2f54	; 0x2f54 <__mulhi_const_10>
    2be6:	82 0f       	add	r24, r18
    2be8:	91 1d       	adc	r25, r1
    2bea:	21 91       	ld	r18, Z+
    2bec:	20 53       	subi	r18, 0x30	; 48
    2bee:	2a 30       	cpi	r18, 0x0A	; 10
    2bf0:	c0 f3       	brcs	.-16     	; 0x2be2 <atoi+0x22>
    2bf2:	1e f4       	brtc	.+6      	; 0x2bfa <atoi+0x3a>
    2bf4:	90 95       	com	r25
    2bf6:	81 95       	neg	r24
    2bf8:	9f 4f       	sbci	r25, 0xFF	; 255
    2bfa:	08 95       	ret

00002bfc <__ftoa_engine>:
    2bfc:	28 30       	cpi	r18, 0x08	; 8
    2bfe:	08 f0       	brcs	.+2      	; 0x2c02 <__ftoa_engine+0x6>
    2c00:	27 e0       	ldi	r18, 0x07	; 7
    2c02:	33 27       	eor	r19, r19
    2c04:	da 01       	movw	r26, r20
    2c06:	99 0f       	add	r25, r25
    2c08:	31 1d       	adc	r19, r1
    2c0a:	87 fd       	sbrc	r24, 7
    2c0c:	91 60       	ori	r25, 0x01	; 1
    2c0e:	00 96       	adiw	r24, 0x00	; 0
    2c10:	61 05       	cpc	r22, r1
    2c12:	71 05       	cpc	r23, r1
    2c14:	39 f4       	brne	.+14     	; 0x2c24 <__ftoa_engine+0x28>
    2c16:	32 60       	ori	r19, 0x02	; 2
    2c18:	2e 5f       	subi	r18, 0xFE	; 254
    2c1a:	3d 93       	st	X+, r19
    2c1c:	30 e3       	ldi	r19, 0x30	; 48
    2c1e:	2a 95       	dec	r18
    2c20:	e1 f7       	brne	.-8      	; 0x2c1a <__ftoa_engine+0x1e>
    2c22:	08 95       	ret
    2c24:	9f 3f       	cpi	r25, 0xFF	; 255
    2c26:	30 f0       	brcs	.+12     	; 0x2c34 <__ftoa_engine+0x38>
    2c28:	80 38       	cpi	r24, 0x80	; 128
    2c2a:	71 05       	cpc	r23, r1
    2c2c:	61 05       	cpc	r22, r1
    2c2e:	09 f0       	breq	.+2      	; 0x2c32 <__ftoa_engine+0x36>
    2c30:	3c 5f       	subi	r19, 0xFC	; 252
    2c32:	3c 5f       	subi	r19, 0xFC	; 252
    2c34:	3d 93       	st	X+, r19
    2c36:	91 30       	cpi	r25, 0x01	; 1
    2c38:	08 f0       	brcs	.+2      	; 0x2c3c <__ftoa_engine+0x40>
    2c3a:	80 68       	ori	r24, 0x80	; 128
    2c3c:	91 1d       	adc	r25, r1
    2c3e:	df 93       	push	r29
    2c40:	cf 93       	push	r28
    2c42:	1f 93       	push	r17
    2c44:	0f 93       	push	r16
    2c46:	ff 92       	push	r15
    2c48:	ef 92       	push	r14
    2c4a:	19 2f       	mov	r17, r25
    2c4c:	98 7f       	andi	r25, 0xF8	; 248
    2c4e:	96 95       	lsr	r25
    2c50:	e9 2f       	mov	r30, r25
    2c52:	96 95       	lsr	r25
    2c54:	96 95       	lsr	r25
    2c56:	e9 0f       	add	r30, r25
    2c58:	ff 27       	eor	r31, r31
    2c5a:	e6 53       	subi	r30, 0x36	; 54
    2c5c:	ff 4f       	sbci	r31, 0xFF	; 255
    2c5e:	99 27       	eor	r25, r25
    2c60:	33 27       	eor	r19, r19
    2c62:	ee 24       	eor	r14, r14
    2c64:	ff 24       	eor	r15, r15
    2c66:	a7 01       	movw	r20, r14
    2c68:	e7 01       	movw	r28, r14
    2c6a:	05 90       	lpm	r0, Z+
    2c6c:	08 94       	sec
    2c6e:	07 94       	ror	r0
    2c70:	28 f4       	brcc	.+10     	; 0x2c7c <__ftoa_engine+0x80>
    2c72:	36 0f       	add	r19, r22
    2c74:	e7 1e       	adc	r14, r23
    2c76:	f8 1e       	adc	r15, r24
    2c78:	49 1f       	adc	r20, r25
    2c7a:	51 1d       	adc	r21, r1
    2c7c:	66 0f       	add	r22, r22
    2c7e:	77 1f       	adc	r23, r23
    2c80:	88 1f       	adc	r24, r24
    2c82:	99 1f       	adc	r25, r25
    2c84:	06 94       	lsr	r0
    2c86:	a1 f7       	brne	.-24     	; 0x2c70 <__ftoa_engine+0x74>
    2c88:	05 90       	lpm	r0, Z+
    2c8a:	07 94       	ror	r0
    2c8c:	28 f4       	brcc	.+10     	; 0x2c98 <__ftoa_engine+0x9c>
    2c8e:	e7 0e       	add	r14, r23
    2c90:	f8 1e       	adc	r15, r24
    2c92:	49 1f       	adc	r20, r25
    2c94:	56 1f       	adc	r21, r22
    2c96:	c1 1d       	adc	r28, r1
    2c98:	77 0f       	add	r23, r23
    2c9a:	88 1f       	adc	r24, r24
    2c9c:	99 1f       	adc	r25, r25
    2c9e:	66 1f       	adc	r22, r22
    2ca0:	06 94       	lsr	r0
    2ca2:	a1 f7       	brne	.-24     	; 0x2c8c <__ftoa_engine+0x90>
    2ca4:	05 90       	lpm	r0, Z+
    2ca6:	07 94       	ror	r0
    2ca8:	28 f4       	brcc	.+10     	; 0x2cb4 <__ftoa_engine+0xb8>
    2caa:	f8 0e       	add	r15, r24
    2cac:	49 1f       	adc	r20, r25
    2cae:	56 1f       	adc	r21, r22
    2cb0:	c7 1f       	adc	r28, r23
    2cb2:	d1 1d       	adc	r29, r1
    2cb4:	88 0f       	add	r24, r24
    2cb6:	99 1f       	adc	r25, r25
    2cb8:	66 1f       	adc	r22, r22
    2cba:	77 1f       	adc	r23, r23
    2cbc:	06 94       	lsr	r0
    2cbe:	a1 f7       	brne	.-24     	; 0x2ca8 <__ftoa_engine+0xac>
    2cc0:	05 90       	lpm	r0, Z+
    2cc2:	07 94       	ror	r0
    2cc4:	20 f4       	brcc	.+8      	; 0x2cce <__ftoa_engine+0xd2>
    2cc6:	49 0f       	add	r20, r25
    2cc8:	56 1f       	adc	r21, r22
    2cca:	c7 1f       	adc	r28, r23
    2ccc:	d8 1f       	adc	r29, r24
    2cce:	99 0f       	add	r25, r25
    2cd0:	66 1f       	adc	r22, r22
    2cd2:	77 1f       	adc	r23, r23
    2cd4:	88 1f       	adc	r24, r24
    2cd6:	06 94       	lsr	r0
    2cd8:	a9 f7       	brne	.-22     	; 0x2cc4 <__ftoa_engine+0xc8>
    2cda:	84 91       	lpm	r24, Z
    2cdc:	10 95       	com	r17
    2cde:	17 70       	andi	r17, 0x07	; 7
    2ce0:	41 f0       	breq	.+16     	; 0x2cf2 <__ftoa_engine+0xf6>
    2ce2:	d6 95       	lsr	r29
    2ce4:	c7 95       	ror	r28
    2ce6:	57 95       	ror	r21
    2ce8:	47 95       	ror	r20
    2cea:	f7 94       	ror	r15
    2cec:	e7 94       	ror	r14
    2cee:	1a 95       	dec	r17
    2cf0:	c1 f7       	brne	.-16     	; 0x2ce2 <__ftoa_engine+0xe6>
    2cf2:	e0 e7       	ldi	r30, 0x70	; 112
    2cf4:	f0 e0       	ldi	r31, 0x00	; 0
    2cf6:	68 94       	set
    2cf8:	15 90       	lpm	r1, Z+
    2cfa:	15 91       	lpm	r17, Z+
    2cfc:	35 91       	lpm	r19, Z+
    2cfe:	65 91       	lpm	r22, Z+
    2d00:	95 91       	lpm	r25, Z+
    2d02:	05 90       	lpm	r0, Z+
    2d04:	7f e2       	ldi	r23, 0x2F	; 47
    2d06:	73 95       	inc	r23
    2d08:	e1 18       	sub	r14, r1
    2d0a:	f1 0a       	sbc	r15, r17
    2d0c:	43 0b       	sbc	r20, r19
    2d0e:	56 0b       	sbc	r21, r22
    2d10:	c9 0b       	sbc	r28, r25
    2d12:	d0 09       	sbc	r29, r0
    2d14:	c0 f7       	brcc	.-16     	; 0x2d06 <__ftoa_engine+0x10a>
    2d16:	e1 0c       	add	r14, r1
    2d18:	f1 1e       	adc	r15, r17
    2d1a:	43 1f       	adc	r20, r19
    2d1c:	56 1f       	adc	r21, r22
    2d1e:	c9 1f       	adc	r28, r25
    2d20:	d0 1d       	adc	r29, r0
    2d22:	7e f4       	brtc	.+30     	; 0x2d42 <__ftoa_engine+0x146>
    2d24:	70 33       	cpi	r23, 0x30	; 48
    2d26:	11 f4       	brne	.+4      	; 0x2d2c <__ftoa_engine+0x130>
    2d28:	8a 95       	dec	r24
    2d2a:	e6 cf       	rjmp	.-52     	; 0x2cf8 <__ftoa_engine+0xfc>
    2d2c:	e8 94       	clt
    2d2e:	01 50       	subi	r16, 0x01	; 1
    2d30:	30 f0       	brcs	.+12     	; 0x2d3e <__ftoa_engine+0x142>
    2d32:	08 0f       	add	r16, r24
    2d34:	0a f4       	brpl	.+2      	; 0x2d38 <__ftoa_engine+0x13c>
    2d36:	00 27       	eor	r16, r16
    2d38:	02 17       	cp	r16, r18
    2d3a:	08 f4       	brcc	.+2      	; 0x2d3e <__ftoa_engine+0x142>
    2d3c:	20 2f       	mov	r18, r16
    2d3e:	23 95       	inc	r18
    2d40:	02 2f       	mov	r16, r18
    2d42:	7a 33       	cpi	r23, 0x3A	; 58
    2d44:	28 f0       	brcs	.+10     	; 0x2d50 <__ftoa_engine+0x154>
    2d46:	79 e3       	ldi	r23, 0x39	; 57
    2d48:	7d 93       	st	X+, r23
    2d4a:	2a 95       	dec	r18
    2d4c:	e9 f7       	brne	.-6      	; 0x2d48 <__ftoa_engine+0x14c>
    2d4e:	10 c0       	rjmp	.+32     	; 0x2d70 <__ftoa_engine+0x174>
    2d50:	7d 93       	st	X+, r23
    2d52:	2a 95       	dec	r18
    2d54:	89 f6       	brne	.-94     	; 0x2cf8 <__ftoa_engine+0xfc>
    2d56:	06 94       	lsr	r0
    2d58:	97 95       	ror	r25
    2d5a:	67 95       	ror	r22
    2d5c:	37 95       	ror	r19
    2d5e:	17 95       	ror	r17
    2d60:	17 94       	ror	r1
    2d62:	e1 18       	sub	r14, r1
    2d64:	f1 0a       	sbc	r15, r17
    2d66:	43 0b       	sbc	r20, r19
    2d68:	56 0b       	sbc	r21, r22
    2d6a:	c9 0b       	sbc	r28, r25
    2d6c:	d0 09       	sbc	r29, r0
    2d6e:	98 f0       	brcs	.+38     	; 0x2d96 <__ftoa_engine+0x19a>
    2d70:	23 95       	inc	r18
    2d72:	7e 91       	ld	r23, -X
    2d74:	73 95       	inc	r23
    2d76:	7a 33       	cpi	r23, 0x3A	; 58
    2d78:	08 f0       	brcs	.+2      	; 0x2d7c <__ftoa_engine+0x180>
    2d7a:	70 e3       	ldi	r23, 0x30	; 48
    2d7c:	7c 93       	st	X, r23
    2d7e:	20 13       	cpse	r18, r16
    2d80:	b8 f7       	brcc	.-18     	; 0x2d70 <__ftoa_engine+0x174>
    2d82:	7e 91       	ld	r23, -X
    2d84:	70 61       	ori	r23, 0x10	; 16
    2d86:	7d 93       	st	X+, r23
    2d88:	30 f0       	brcs	.+12     	; 0x2d96 <__ftoa_engine+0x19a>
    2d8a:	83 95       	inc	r24
    2d8c:	71 e3       	ldi	r23, 0x31	; 49
    2d8e:	7d 93       	st	X+, r23
    2d90:	70 e3       	ldi	r23, 0x30	; 48
    2d92:	2a 95       	dec	r18
    2d94:	e1 f7       	brne	.-8      	; 0x2d8e <__ftoa_engine+0x192>
    2d96:	11 24       	eor	r1, r1
    2d98:	ef 90       	pop	r14
    2d9a:	ff 90       	pop	r15
    2d9c:	0f 91       	pop	r16
    2d9e:	1f 91       	pop	r17
    2da0:	cf 91       	pop	r28
    2da2:	df 91       	pop	r29
    2da4:	99 27       	eor	r25, r25
    2da6:	87 fd       	sbrc	r24, 7
    2da8:	90 95       	com	r25
    2daa:	08 95       	ret

00002dac <setjmp>:
    2dac:	dc 01       	movw	r26, r24
    2dae:	2d 92       	st	X+, r2
    2db0:	3d 92       	st	X+, r3
    2db2:	4d 92       	st	X+, r4
    2db4:	5d 92       	st	X+, r5
    2db6:	6d 92       	st	X+, r6
    2db8:	7d 92       	st	X+, r7
    2dba:	8d 92       	st	X+, r8
    2dbc:	9d 92       	st	X+, r9
    2dbe:	ad 92       	st	X+, r10
    2dc0:	bd 92       	st	X+, r11
    2dc2:	cd 92       	st	X+, r12
    2dc4:	dd 92       	st	X+, r13
    2dc6:	ed 92       	st	X+, r14
    2dc8:	fd 92       	st	X+, r15
    2dca:	0d 93       	st	X+, r16
    2dcc:	1d 93       	st	X+, r17
    2dce:	cd 93       	st	X+, r28
    2dd0:	dd 93       	st	X+, r29
    2dd2:	ff 91       	pop	r31
    2dd4:	ef 91       	pop	r30
    2dd6:	8d b7       	in	r24, 0x3d	; 61
    2dd8:	8d 93       	st	X+, r24
    2dda:	8e b7       	in	r24, 0x3e	; 62
    2ddc:	8d 93       	st	X+, r24
    2dde:	8f b7       	in	r24, 0x3f	; 63
    2de0:	8d 93       	st	X+, r24
    2de2:	ed 93       	st	X+, r30
    2de4:	fd 93       	st	X+, r31
    2de6:	88 27       	eor	r24, r24
    2de8:	99 27       	eor	r25, r25
    2dea:	09 94       	ijmp

00002dec <longjmp>:
    2dec:	dc 01       	movw	r26, r24
    2dee:	cb 01       	movw	r24, r22
    2df0:	81 30       	cpi	r24, 0x01	; 1
    2df2:	91 05       	cpc	r25, r1
    2df4:	81 1d       	adc	r24, r1
    2df6:	2d 90       	ld	r2, X+
    2df8:	3d 90       	ld	r3, X+
    2dfa:	4d 90       	ld	r4, X+
    2dfc:	5d 90       	ld	r5, X+
    2dfe:	6d 90       	ld	r6, X+
    2e00:	7d 90       	ld	r7, X+
    2e02:	8d 90       	ld	r8, X+
    2e04:	9d 90       	ld	r9, X+
    2e06:	ad 90       	ld	r10, X+
    2e08:	bd 90       	ld	r11, X+
    2e0a:	cd 90       	ld	r12, X+
    2e0c:	dd 90       	ld	r13, X+
    2e0e:	ed 90       	ld	r14, X+
    2e10:	fd 90       	ld	r15, X+
    2e12:	0d 91       	ld	r16, X+
    2e14:	1d 91       	ld	r17, X+
    2e16:	cd 91       	ld	r28, X+
    2e18:	dd 91       	ld	r29, X+
    2e1a:	ed 91       	ld	r30, X+
    2e1c:	fd 91       	ld	r31, X+
    2e1e:	0d 90       	ld	r0, X+
    2e20:	f8 94       	cli
    2e22:	fe bf       	out	0x3e, r31	; 62
    2e24:	0f be       	out	0x3f, r0	; 63
    2e26:	ed bf       	out	0x3d, r30	; 61
    2e28:	ed 91       	ld	r30, X+
    2e2a:	fd 91       	ld	r31, X+
    2e2c:	09 94       	ijmp

00002e2e <strnlen_P>:
    2e2e:	fc 01       	movw	r30, r24
    2e30:	05 90       	lpm	r0, Z+
    2e32:	61 50       	subi	r22, 0x01	; 1
    2e34:	70 40       	sbci	r23, 0x00	; 0
    2e36:	01 10       	cpse	r0, r1
    2e38:	d8 f7       	brcc	.-10     	; 0x2e30 <strnlen_P+0x2>
    2e3a:	80 95       	com	r24
    2e3c:	90 95       	com	r25
    2e3e:	8e 0f       	add	r24, r30
    2e40:	9f 1f       	adc	r25, r31
    2e42:	08 95       	ret

00002e44 <strtok>:
    2e44:	4a e1       	ldi	r20, 0x1A	; 26
    2e46:	54 e0       	ldi	r21, 0x04	; 4
    2e48:	0e 94 6d 17 	call	0x2eda	; 0x2eda <strtok_r>
    2e4c:	08 95       	ret

00002e4e <strcat>:
    2e4e:	fb 01       	movw	r30, r22
    2e50:	dc 01       	movw	r26, r24
    2e52:	0d 90       	ld	r0, X+
    2e54:	00 20       	and	r0, r0
    2e56:	e9 f7       	brne	.-6      	; 0x2e52 <strcat+0x4>
    2e58:	11 97       	sbiw	r26, 0x01	; 1
    2e5a:	01 90       	ld	r0, Z+
    2e5c:	0d 92       	st	X+, r0
    2e5e:	00 20       	and	r0, r0
    2e60:	e1 f7       	brne	.-8      	; 0x2e5a <strcat+0xc>
    2e62:	08 95       	ret

00002e64 <strcpy>:
    2e64:	fb 01       	movw	r30, r22
    2e66:	dc 01       	movw	r26, r24
    2e68:	01 90       	ld	r0, Z+
    2e6a:	0d 92       	st	X+, r0
    2e6c:	00 20       	and	r0, r0
    2e6e:	e1 f7       	brne	.-8      	; 0x2e68 <strcpy+0x4>
    2e70:	08 95       	ret

00002e72 <strncpy>:
    2e72:	fb 01       	movw	r30, r22
    2e74:	dc 01       	movw	r26, r24
    2e76:	41 50       	subi	r20, 0x01	; 1
    2e78:	50 40       	sbci	r21, 0x00	; 0
    2e7a:	48 f0       	brcs	.+18     	; 0x2e8e <strncpy+0x1c>
    2e7c:	01 90       	ld	r0, Z+
    2e7e:	0d 92       	st	X+, r0
    2e80:	00 20       	and	r0, r0
    2e82:	c9 f7       	brne	.-14     	; 0x2e76 <strncpy+0x4>
    2e84:	01 c0       	rjmp	.+2      	; 0x2e88 <strncpy+0x16>
    2e86:	1d 92       	st	X+, r1
    2e88:	41 50       	subi	r20, 0x01	; 1
    2e8a:	50 40       	sbci	r21, 0x00	; 0
    2e8c:	e0 f7       	brcc	.-8      	; 0x2e86 <strncpy+0x14>
    2e8e:	08 95       	ret

00002e90 <strnlen>:
    2e90:	fc 01       	movw	r30, r24
    2e92:	61 50       	subi	r22, 0x01	; 1
    2e94:	70 40       	sbci	r23, 0x00	; 0
    2e96:	01 90       	ld	r0, Z+
    2e98:	01 10       	cpse	r0, r1
    2e9a:	d8 f7       	brcc	.-10     	; 0x2e92 <strnlen+0x2>
    2e9c:	80 95       	com	r24
    2e9e:	90 95       	com	r25
    2ea0:	8e 0f       	add	r24, r30
    2ea2:	9f 1f       	adc	r25, r31
    2ea4:	08 95       	ret

00002ea6 <strstr>:
    2ea6:	fb 01       	movw	r30, r22
    2ea8:	51 91       	ld	r21, Z+
    2eaa:	55 23       	and	r21, r21
    2eac:	a9 f0       	breq	.+42     	; 0x2ed8 <strstr+0x32>
    2eae:	bf 01       	movw	r22, r30
    2eb0:	dc 01       	movw	r26, r24
    2eb2:	4d 91       	ld	r20, X+
    2eb4:	45 17       	cp	r20, r21
    2eb6:	41 11       	cpse	r20, r1
    2eb8:	e1 f7       	brne	.-8      	; 0x2eb2 <strstr+0xc>
    2eba:	59 f4       	brne	.+22     	; 0x2ed2 <strstr+0x2c>
    2ebc:	cd 01       	movw	r24, r26
    2ebe:	01 90       	ld	r0, Z+
    2ec0:	00 20       	and	r0, r0
    2ec2:	49 f0       	breq	.+18     	; 0x2ed6 <strstr+0x30>
    2ec4:	4d 91       	ld	r20, X+
    2ec6:	40 15       	cp	r20, r0
    2ec8:	41 11       	cpse	r20, r1
    2eca:	c9 f3       	breq	.-14     	; 0x2ebe <strstr+0x18>
    2ecc:	fb 01       	movw	r30, r22
    2ece:	41 11       	cpse	r20, r1
    2ed0:	ef cf       	rjmp	.-34     	; 0x2eb0 <strstr+0xa>
    2ed2:	81 e0       	ldi	r24, 0x01	; 1
    2ed4:	90 e0       	ldi	r25, 0x00	; 0
    2ed6:	01 97       	sbiw	r24, 0x01	; 1
    2ed8:	08 95       	ret

00002eda <strtok_r>:
    2eda:	fa 01       	movw	r30, r20
    2edc:	a1 91       	ld	r26, Z+
    2ede:	b0 81       	ld	r27, Z
    2ee0:	00 97       	sbiw	r24, 0x00	; 0
    2ee2:	19 f4       	brne	.+6      	; 0x2eea <strtok_r+0x10>
    2ee4:	10 97       	sbiw	r26, 0x00	; 0
    2ee6:	e1 f0       	breq	.+56     	; 0x2f20 <strtok_r+0x46>
    2ee8:	cd 01       	movw	r24, r26
    2eea:	dc 01       	movw	r26, r24
    2eec:	cd 01       	movw	r24, r26
    2eee:	0d 90       	ld	r0, X+
    2ef0:	00 20       	and	r0, r0
    2ef2:	11 f4       	brne	.+4      	; 0x2ef8 <strtok_r+0x1e>
    2ef4:	c0 01       	movw	r24, r0
    2ef6:	13 c0       	rjmp	.+38     	; 0x2f1e <strtok_r+0x44>
    2ef8:	fb 01       	movw	r30, r22
    2efa:	21 91       	ld	r18, Z+
    2efc:	22 23       	and	r18, r18
    2efe:	19 f0       	breq	.+6      	; 0x2f06 <strtok_r+0x2c>
    2f00:	20 15       	cp	r18, r0
    2f02:	d9 f7       	brne	.-10     	; 0x2efa <strtok_r+0x20>
    2f04:	f3 cf       	rjmp	.-26     	; 0x2eec <strtok_r+0x12>
    2f06:	fb 01       	movw	r30, r22
    2f08:	21 91       	ld	r18, Z+
    2f0a:	20 15       	cp	r18, r0
    2f0c:	19 f4       	brne	.+6      	; 0x2f14 <strtok_r+0x3a>
    2f0e:	1e 92       	st	-X, r1
    2f10:	11 96       	adiw	r26, 0x01	; 1
    2f12:	06 c0       	rjmp	.+12     	; 0x2f20 <strtok_r+0x46>
    2f14:	22 23       	and	r18, r18
    2f16:	c1 f7       	brne	.-16     	; 0x2f08 <strtok_r+0x2e>
    2f18:	0d 90       	ld	r0, X+
    2f1a:	00 20       	and	r0, r0
    2f1c:	a1 f7       	brne	.-24     	; 0x2f06 <strtok_r+0x2c>
    2f1e:	d0 01       	movw	r26, r0
    2f20:	fa 01       	movw	r30, r20
    2f22:	a1 93       	st	Z+, r26
    2f24:	b0 83       	st	Z, r27
    2f26:	08 95       	ret

00002f28 <itoa>:
    2f28:	45 32       	cpi	r20, 0x25	; 37
    2f2a:	51 05       	cpc	r21, r1
    2f2c:	20 f4       	brcc	.+8      	; 0x2f36 <itoa+0xe>
    2f2e:	42 30       	cpi	r20, 0x02	; 2
    2f30:	10 f0       	brcs	.+4      	; 0x2f36 <itoa+0xe>
    2f32:	0c 94 9f 17 	jmp	0x2f3e	; 0x2f3e <__itoa_ncheck>
    2f36:	fb 01       	movw	r30, r22
    2f38:	10 82       	st	Z, r1
    2f3a:	cb 01       	movw	r24, r22
    2f3c:	08 95       	ret

00002f3e <__itoa_ncheck>:
    2f3e:	bb 27       	eor	r27, r27
    2f40:	4a 30       	cpi	r20, 0x0A	; 10
    2f42:	31 f4       	brne	.+12     	; 0x2f50 <__itoa_ncheck+0x12>
    2f44:	99 23       	and	r25, r25
    2f46:	22 f4       	brpl	.+8      	; 0x2f50 <__itoa_ncheck+0x12>
    2f48:	bd e2       	ldi	r27, 0x2D	; 45
    2f4a:	90 95       	com	r25
    2f4c:	81 95       	neg	r24
    2f4e:	9f 4f       	sbci	r25, 0xFF	; 255
    2f50:	0c 94 b3 17 	jmp	0x2f66	; 0x2f66 <__utoa_common>

00002f54 <__mulhi_const_10>:
    2f54:	7a e0       	ldi	r23, 0x0A	; 10
    2f56:	97 9f       	mul	r25, r23
    2f58:	90 2d       	mov	r25, r0
    2f5a:	87 9f       	mul	r24, r23
    2f5c:	80 2d       	mov	r24, r0
    2f5e:	91 0d       	add	r25, r1
    2f60:	11 24       	eor	r1, r1
    2f62:	08 95       	ret

00002f64 <__utoa_ncheck>:
    2f64:	bb 27       	eor	r27, r27

00002f66 <__utoa_common>:
    2f66:	fb 01       	movw	r30, r22
    2f68:	55 27       	eor	r21, r21
    2f6a:	aa 27       	eor	r26, r26
    2f6c:	88 0f       	add	r24, r24
    2f6e:	99 1f       	adc	r25, r25
    2f70:	aa 1f       	adc	r26, r26
    2f72:	a4 17       	cp	r26, r20
    2f74:	10 f0       	brcs	.+4      	; 0x2f7a <__utoa_common+0x14>
    2f76:	a4 1b       	sub	r26, r20
    2f78:	83 95       	inc	r24
    2f7a:	50 51       	subi	r21, 0x10	; 16
    2f7c:	b9 f7       	brne	.-18     	; 0x2f6c <__utoa_common+0x6>
    2f7e:	a0 5d       	subi	r26, 0xD0	; 208
    2f80:	aa 33       	cpi	r26, 0x3A	; 58
    2f82:	08 f0       	brcs	.+2      	; 0x2f86 <__utoa_common+0x20>
    2f84:	a9 5d       	subi	r26, 0xD9	; 217
    2f86:	a1 93       	st	Z+, r26
    2f88:	00 97       	sbiw	r24, 0x00	; 0
    2f8a:	79 f7       	brne	.-34     	; 0x2f6a <__utoa_common+0x4>
    2f8c:	b1 11       	cpse	r27, r1
    2f8e:	b1 93       	st	Z+, r27
    2f90:	11 92       	st	Z+, r1
    2f92:	cb 01       	movw	r24, r22
    2f94:	0c 94 88 18 	jmp	0x3110	; 0x3110 <strrev>

00002f98 <fputc>:
    2f98:	0f 93       	push	r16
    2f9a:	1f 93       	push	r17
    2f9c:	cf 93       	push	r28
    2f9e:	df 93       	push	r29
    2fa0:	fb 01       	movw	r30, r22
    2fa2:	23 81       	ldd	r18, Z+3	; 0x03
    2fa4:	21 fd       	sbrc	r18, 1
    2fa6:	03 c0       	rjmp	.+6      	; 0x2fae <fputc+0x16>
    2fa8:	8f ef       	ldi	r24, 0xFF	; 255
    2faa:	9f ef       	ldi	r25, 0xFF	; 255
    2fac:	2c c0       	rjmp	.+88     	; 0x3006 <fputc+0x6e>
    2fae:	22 ff       	sbrs	r18, 2
    2fb0:	16 c0       	rjmp	.+44     	; 0x2fde <fputc+0x46>
    2fb2:	46 81       	ldd	r20, Z+6	; 0x06
    2fb4:	57 81       	ldd	r21, Z+7	; 0x07
    2fb6:	24 81       	ldd	r18, Z+4	; 0x04
    2fb8:	35 81       	ldd	r19, Z+5	; 0x05
    2fba:	42 17       	cp	r20, r18
    2fbc:	53 07       	cpc	r21, r19
    2fbe:	44 f4       	brge	.+16     	; 0x2fd0 <fputc+0x38>
    2fc0:	a0 81       	ld	r26, Z
    2fc2:	b1 81       	ldd	r27, Z+1	; 0x01
    2fc4:	9d 01       	movw	r18, r26
    2fc6:	2f 5f       	subi	r18, 0xFF	; 255
    2fc8:	3f 4f       	sbci	r19, 0xFF	; 255
    2fca:	31 83       	std	Z+1, r19	; 0x01
    2fcc:	20 83       	st	Z, r18
    2fce:	8c 93       	st	X, r24
    2fd0:	26 81       	ldd	r18, Z+6	; 0x06
    2fd2:	37 81       	ldd	r19, Z+7	; 0x07
    2fd4:	2f 5f       	subi	r18, 0xFF	; 255
    2fd6:	3f 4f       	sbci	r19, 0xFF	; 255
    2fd8:	37 83       	std	Z+7, r19	; 0x07
    2fda:	26 83       	std	Z+6, r18	; 0x06
    2fdc:	14 c0       	rjmp	.+40     	; 0x3006 <fputc+0x6e>
    2fde:	8b 01       	movw	r16, r22
    2fe0:	ec 01       	movw	r28, r24
    2fe2:	fb 01       	movw	r30, r22
    2fe4:	00 84       	ldd	r0, Z+8	; 0x08
    2fe6:	f1 85       	ldd	r31, Z+9	; 0x09
    2fe8:	e0 2d       	mov	r30, r0
    2fea:	09 95       	icall
    2fec:	89 2b       	or	r24, r25
    2fee:	e1 f6       	brne	.-72     	; 0x2fa8 <fputc+0x10>
    2ff0:	d8 01       	movw	r26, r16
    2ff2:	16 96       	adiw	r26, 0x06	; 6
    2ff4:	8d 91       	ld	r24, X+
    2ff6:	9c 91       	ld	r25, X
    2ff8:	17 97       	sbiw	r26, 0x07	; 7
    2ffa:	01 96       	adiw	r24, 0x01	; 1
    2ffc:	17 96       	adiw	r26, 0x07	; 7
    2ffe:	9c 93       	st	X, r25
    3000:	8e 93       	st	-X, r24
    3002:	16 97       	sbiw	r26, 0x06	; 6
    3004:	ce 01       	movw	r24, r28
    3006:	df 91       	pop	r29
    3008:	cf 91       	pop	r28
    300a:	1f 91       	pop	r17
    300c:	0f 91       	pop	r16
    300e:	08 95       	ret

00003010 <sprintf>:
    3010:	ae e0       	ldi	r26, 0x0E	; 14
    3012:	b0 e0       	ldi	r27, 0x00	; 0
    3014:	ee e0       	ldi	r30, 0x0E	; 14
    3016:	f8 e1       	ldi	r31, 0x18	; 24
    3018:	0c 94 b7 15 	jmp	0x2b6e	; 0x2b6e <__prologue_saves__+0x1c>
    301c:	0d 89       	ldd	r16, Y+21	; 0x15
    301e:	1e 89       	ldd	r17, Y+22	; 0x16
    3020:	86 e0       	ldi	r24, 0x06	; 6
    3022:	8c 83       	std	Y+4, r24	; 0x04
    3024:	1a 83       	std	Y+2, r17	; 0x02
    3026:	09 83       	std	Y+1, r16	; 0x01
    3028:	8f ef       	ldi	r24, 0xFF	; 255
    302a:	9f e7       	ldi	r25, 0x7F	; 127
    302c:	9e 83       	std	Y+6, r25	; 0x06
    302e:	8d 83       	std	Y+5, r24	; 0x05
    3030:	ae 01       	movw	r20, r28
    3032:	47 5e       	subi	r20, 0xE7	; 231
    3034:	5f 4f       	sbci	r21, 0xFF	; 255
    3036:	6f 89       	ldd	r22, Y+23	; 0x17
    3038:	78 8d       	ldd	r23, Y+24	; 0x18
    303a:	ce 01       	movw	r24, r28
    303c:	01 96       	adiw	r24, 0x01	; 1
    303e:	0e 94 fb 11 	call	0x23f6	; 0x23f6 <vfprintf>
    3042:	ef 81       	ldd	r30, Y+7	; 0x07
    3044:	f8 85       	ldd	r31, Y+8	; 0x08
    3046:	e0 0f       	add	r30, r16
    3048:	f1 1f       	adc	r31, r17
    304a:	10 82       	st	Z, r1
    304c:	2e 96       	adiw	r28, 0x0e	; 14
    304e:	e4 e0       	ldi	r30, 0x04	; 4
    3050:	0c 94 d3 15 	jmp	0x2ba6	; 0x2ba6 <__epilogue_restores__+0x1c>

00003054 <__ultoa_invert>:
    3054:	fa 01       	movw	r30, r20
    3056:	aa 27       	eor	r26, r26
    3058:	28 30       	cpi	r18, 0x08	; 8
    305a:	51 f1       	breq	.+84     	; 0x30b0 <__ultoa_invert+0x5c>
    305c:	20 31       	cpi	r18, 0x10	; 16
    305e:	81 f1       	breq	.+96     	; 0x30c0 <__ultoa_invert+0x6c>
    3060:	e8 94       	clt
    3062:	6f 93       	push	r22
    3064:	6e 7f       	andi	r22, 0xFE	; 254
    3066:	6e 5f       	subi	r22, 0xFE	; 254
    3068:	7f 4f       	sbci	r23, 0xFF	; 255
    306a:	8f 4f       	sbci	r24, 0xFF	; 255
    306c:	9f 4f       	sbci	r25, 0xFF	; 255
    306e:	af 4f       	sbci	r26, 0xFF	; 255
    3070:	b1 e0       	ldi	r27, 0x01	; 1
    3072:	3e d0       	rcall	.+124    	; 0x30f0 <__ultoa_invert+0x9c>
    3074:	b4 e0       	ldi	r27, 0x04	; 4
    3076:	3c d0       	rcall	.+120    	; 0x30f0 <__ultoa_invert+0x9c>
    3078:	67 0f       	add	r22, r23
    307a:	78 1f       	adc	r23, r24
    307c:	89 1f       	adc	r24, r25
    307e:	9a 1f       	adc	r25, r26
    3080:	a1 1d       	adc	r26, r1
    3082:	68 0f       	add	r22, r24
    3084:	79 1f       	adc	r23, r25
    3086:	8a 1f       	adc	r24, r26
    3088:	91 1d       	adc	r25, r1
    308a:	a1 1d       	adc	r26, r1
    308c:	6a 0f       	add	r22, r26
    308e:	71 1d       	adc	r23, r1
    3090:	81 1d       	adc	r24, r1
    3092:	91 1d       	adc	r25, r1
    3094:	a1 1d       	adc	r26, r1
    3096:	20 d0       	rcall	.+64     	; 0x30d8 <__ultoa_invert+0x84>
    3098:	09 f4       	brne	.+2      	; 0x309c <__ultoa_invert+0x48>
    309a:	68 94       	set
    309c:	3f 91       	pop	r19
    309e:	2a e0       	ldi	r18, 0x0A	; 10
    30a0:	26 9f       	mul	r18, r22
    30a2:	11 24       	eor	r1, r1
    30a4:	30 19       	sub	r19, r0
    30a6:	30 5d       	subi	r19, 0xD0	; 208
    30a8:	31 93       	st	Z+, r19
    30aa:	de f6       	brtc	.-74     	; 0x3062 <__ultoa_invert+0xe>
    30ac:	cf 01       	movw	r24, r30
    30ae:	08 95       	ret
    30b0:	46 2f       	mov	r20, r22
    30b2:	47 70       	andi	r20, 0x07	; 7
    30b4:	40 5d       	subi	r20, 0xD0	; 208
    30b6:	41 93       	st	Z+, r20
    30b8:	b3 e0       	ldi	r27, 0x03	; 3
    30ba:	0f d0       	rcall	.+30     	; 0x30da <__ultoa_invert+0x86>
    30bc:	c9 f7       	brne	.-14     	; 0x30b0 <__ultoa_invert+0x5c>
    30be:	f6 cf       	rjmp	.-20     	; 0x30ac <__ultoa_invert+0x58>
    30c0:	46 2f       	mov	r20, r22
    30c2:	4f 70       	andi	r20, 0x0F	; 15
    30c4:	40 5d       	subi	r20, 0xD0	; 208
    30c6:	4a 33       	cpi	r20, 0x3A	; 58
    30c8:	18 f0       	brcs	.+6      	; 0x30d0 <__ultoa_invert+0x7c>
    30ca:	49 5d       	subi	r20, 0xD9	; 217
    30cc:	31 fd       	sbrc	r19, 1
    30ce:	40 52       	subi	r20, 0x20	; 32
    30d0:	41 93       	st	Z+, r20
    30d2:	02 d0       	rcall	.+4      	; 0x30d8 <__ultoa_invert+0x84>
    30d4:	a9 f7       	brne	.-22     	; 0x30c0 <__ultoa_invert+0x6c>
    30d6:	ea cf       	rjmp	.-44     	; 0x30ac <__ultoa_invert+0x58>
    30d8:	b4 e0       	ldi	r27, 0x04	; 4
    30da:	a6 95       	lsr	r26
    30dc:	97 95       	ror	r25
    30de:	87 95       	ror	r24
    30e0:	77 95       	ror	r23
    30e2:	67 95       	ror	r22
    30e4:	ba 95       	dec	r27
    30e6:	c9 f7       	brne	.-14     	; 0x30da <__ultoa_invert+0x86>
    30e8:	00 97       	sbiw	r24, 0x00	; 0
    30ea:	61 05       	cpc	r22, r1
    30ec:	71 05       	cpc	r23, r1
    30ee:	08 95       	ret
    30f0:	9b 01       	movw	r18, r22
    30f2:	ac 01       	movw	r20, r24
    30f4:	0a 2e       	mov	r0, r26
    30f6:	06 94       	lsr	r0
    30f8:	57 95       	ror	r21
    30fa:	47 95       	ror	r20
    30fc:	37 95       	ror	r19
    30fe:	27 95       	ror	r18
    3100:	ba 95       	dec	r27
    3102:	c9 f7       	brne	.-14     	; 0x30f6 <__ultoa_invert+0xa2>
    3104:	62 0f       	add	r22, r18
    3106:	73 1f       	adc	r23, r19
    3108:	84 1f       	adc	r24, r20
    310a:	95 1f       	adc	r25, r21
    310c:	a0 1d       	adc	r26, r0
    310e:	08 95       	ret

00003110 <strrev>:
    3110:	dc 01       	movw	r26, r24
    3112:	fc 01       	movw	r30, r24
    3114:	67 2f       	mov	r22, r23
    3116:	71 91       	ld	r23, Z+
    3118:	77 23       	and	r23, r23
    311a:	e1 f7       	brne	.-8      	; 0x3114 <strrev+0x4>
    311c:	32 97       	sbiw	r30, 0x02	; 2
    311e:	04 c0       	rjmp	.+8      	; 0x3128 <strrev+0x18>
    3120:	7c 91       	ld	r23, X
    3122:	6d 93       	st	X+, r22
    3124:	70 83       	st	Z, r23
    3126:	62 91       	ld	r22, -Z
    3128:	ae 17       	cp	r26, r30
    312a:	bf 07       	cpc	r27, r31
    312c:	c8 f3       	brcs	.-14     	; 0x3120 <strrev+0x10>
    312e:	08 95       	ret

00003130 <_exit>:
    3130:	f8 94       	cli

00003132 <__stop_program>:
    3132:	ff cf       	rjmp	.-2      	; 0x3132 <__stop_program>
